ccopy_reg
_reconstructor
p0
(chyperopt.base
Trials
p1
c__builtin__
object
p2
Ntp3
Rp4
(dp5
S'_trials'
p6
(lp7
(dp8
S'refresh_time'
p9
cdatetime
datetime
p10
(S'\x07\xe3\n\r\x14\t\x1c\x07Z\xd0'
p11
tp12
Rp13
sS'book_time'
p14
g10
(S'\x07\xe3\n\r\x0f\x11\x1b\x00J8'
p15
tp16
Rp17
sS'misc'
p18
(dp19
S'tid'
p20
I0
sS'idxs'
p21
(dp22
S'units1'
p23
(lp24
I0
asS'units3'
p25
(lp26
I0
asS'units2'
p27
(lp28
I0
asS'batch_size'
p29
(lp30
I0
assS'cmd'
p31
(S'domain_attachment'
p32
S'FMinIter_Domain'
p33
tp34
sS'vals'
p35
(dp36
g23
(lp37
F100.0
asg25
(lp38
F60.0
asg27
(lp39
F60.0
asg29
(lp40
I0
assS'workdir'
p41
NssS'state'
p42
I2
sg20
I0
sS'exp_key'
p43
NsS'version'
p44
I0
sS'result'
p45
(dp46
S'status'
p47
S'ok'
p48
sS'loss'
p49
F0.0074
ssS'owner'
p50
NsS'spec'
p51
Nsa(dp52
g9
g10
(S'\x07\xe3\n\r\x16\x14\x19\x00\xa7\xf8'
p53
tp54
Rp55
sg14
g10
(S'\x07\xe3\n\r\x14\t\x1c\x07}\xf8'
p56
tp57
Rp58
sg18
(dp59
g20
I1
sg21
(dp60
g23
(lp61
I1
asg25
(lp62
I1
asg27
(lp63
I1
asg29
(lp64
I1
assg31
(g32
g33
tp65
sg35
(dp66
g23
(lp67
F40.0
asg25
(lp68
F40.0
asg27
(lp69
F100.0
asg29
(lp70
I0
assg41
Nssg42
I2
sg20
I1
sg43
Nsg44
I0
sg45
(dp71
g47
g48
sg49
F0.0083
ssg50
Nsg51
Nsa(dp72
g9
g10
(S'\x07\xe3\n\r\x17\x15!\x05\x82('
p73
tp74
Rp75
sg14
g10
(S'\x07\xe3\n\r\x16\x14\x19\x00\xb7\x98'
p76
tp77
Rp78
sg18
(dp79
g20
I2
sg21
(dp80
g23
(lp81
I2
asg25
(lp82
I2
asg27
(lp83
I2
asg29
(lp84
I2
assg31
(g32
g33
tp85
sg35
(dp86
g23
(lp87
F20.0
asg25
(lp88
F40.0
asg27
(lp89
F40.0
asg29
(lp90
I0
assg41
Nssg42
I2
sg20
I2
sg43
Nsg44
I0
sg45
(dp91
g47
g48
sg49
F0.014
ssg50
Nsg51
Nsa(dp92
g9
g10
(S'\x07\xe3\n\x0e\x01\x03\x17\x07K0'
p93
tp94
Rp95
sg14
g10
(S'\x07\xe3\n\r\x17\x15!\x05\x99\x98'
p96
tp97
Rp98
sg18
(dp99
g20
I3
sg21
(dp100
g23
(lp101
I3
asg25
(lp102
I3
asg27
(lp103
I3
asg29
(lp104
I3
assg31
(g32
g33
tp105
sg35
(dp106
g23
(lp107
F40.0
asg25
(lp108
F80.0
asg27
(lp109
F40.0
asg29
(lp110
I0
assg41
Nssg42
I2
sg20
I3
sg43
Nsg44
I0
sg45
(dp111
g47
g48
sg49
F0.0079
ssg50
Nsg51
Nsa(dp112
g9
g10
(S'\x07\xe3\n\x0e\x02\x06)\x06\x87\xe0'
p113
tp114
Rp115
sg14
g10
(S'\x07\xe3\n\x0e\x01\x03\x17\x07z\x10'
p116
tp117
Rp118
sg18
(dp119
g20
I4
sg21
(dp120
g23
(lp121
I4
asg25
(lp122
I4
asg27
(lp123
I4
asg29
(lp124
I4
assg31
(g32
g33
tp125
sg35
(dp126
g23
(lp127
F20.0
asg25
(lp128
F20.0
asg27
(lp129
F40.0
asg29
(lp130
I0
assg41
Nssg42
I2
sg20
I4
sg43
Nsg44
I0
sg45
(dp131
g47
g48
sg49
F0.014
ssg50
Nsg51
Nsa(dp132
S'refresh_time'
p133
g10
(S'\x07\xe3\n\x0e\x04\x10!\x07\xcc\x18'
p134
tp135
Rp136
sS'book_time'
p137
g10
(S'\x07\xe3\n\x0e\x02\x06)\x06\xe1\xb8'
p138
tp139
Rp140
sS'misc'
p141
(dp142
S'tid'
p143
I5
sS'idxs'
p144
(dp145
S'units1'
p146
(lp147
I5
asS'units3'
p148
(lp149
I5
asS'units2'
p150
(lp151
I5
asS'batch_size'
p152
(lp153
I5
assS'cmd'
p154
(S'domain_attachment'
p155
S'FMinIter_Domain'
p156
tp157
sS'vals'
p158
(dp159
g146
(lp160
F100.0
asg148
(lp161
F40.0
asg150
(lp162
F0.0
asg152
(lp163
I0
assS'workdir'
p164
NssS'exp_key'
p165
NsS'owner'
p166
NsS'state'
p167
I2
sS'version'
p168
I0
sS'result'
p169
(dp170
S'status'
p171
S'ok'
p172
sS'loss'
p173
F0.0073
ssg143
I5
sS'spec'
p174
Nsa(dp175
S'refresh_time'
p176
g10
(S'\x07\xe3\n\x0e\x06\x1e\x17\t\xd3\xa0'
p177
tp178
Rp179
sS'book_time'
p180
g10
(S'\x07\xe3\n\x0e\x04\x10!\x08M\x00'
p181
tp182
Rp183
sS'misc'
p184
(dp185
S'tid'
p186
I6
sS'idxs'
p187
(dp188
S'units1'
p189
(lp190
I6
asS'units3'
p191
(lp192
I6
asS'units2'
p193
(lp194
I6
asS'batch_size'
p195
(lp196
I6
assS'cmd'
p197
(S'domain_attachment'
p198
S'FMinIter_Domain'
p199
tp200
sS'vals'
p201
(dp202
g189
(lp203
F80.0
asg191
(lp204
F20.0
asg193
(lp205
F40.0
asg195
(lp206
I0
assS'workdir'
p207
NssS'state'
p208
I2
sg186
I6
sS'exp_key'
p209
NsS'version'
p210
I0
sS'result'
p211
(dp212
S'status'
p213
S'ok'
p214
sS'loss'
p215
F0.0072
ssS'owner'
p216
NsS'spec'
p217
NsasS'_exp_key'
p218
NsS'attachments'
p219
(dp220
sS'_dynamic_trials'
p221
(lp222
g8
ag52
ag72
ag92
ag112
ag132
ag175
asS'_ids'
p223
c__builtin__
set
p224
((lp225
I0
aI1
aI2
aI3
aI4
aI5
aI6
atp226
Rp227
sb.