ccopy_reg
_reconstructor
p0
(chyperopt.base
Trials
p1
c__builtin__
object
p2
Ntp3
Rp4
(dp5
S'_trials'
p6
(lp7
(dp8
S'refresh_time'
p9
cdatetime
datetime
p10
(S'\x07\xe3\n\x18\x163\x0f\n\xe1('
p11
tp12
Rp13
sS'book_time'
p14
g10
(S'\x07\xe3\n\x18\x16\x1e;\x07\xd3\xe8'
p15
tp16
Rp17
sS'misc'
p18
(dp19
S'tid'
p20
I0
sS'idxs'
p21
(dp22
S'units1'
p23
(lp24
I0
asS'units3'
p25
(lp26
I0
asS'units2'
p27
(lp28
I0
asS'batch_size'
p29
(lp30
I0
assS'cmd'
p31
(S'domain_attachment'
p32
S'FMinIter_Domain'
p33
tp34
sS'vals'
p35
(dp36
g23
(lp37
F40.0
asg25
(lp38
F80.0
asg27
(lp39
F80.0
asg29
(lp40
I0
assS'workdir'
p41
NssS'exp_key'
p42
NsS'owner'
p43
NsS'state'
p44
I2
sS'version'
p45
I0
sS'result'
p46
(dp47
S'status'
p48
S'ok'
p49
sS'loss'
p50
F0.008
ssg20
I0
sS'spec'
p51
Nsa(dp52
g9
g10
(S'\x07\xe3\n\x18\x17\x0b\x11\x06I`'
p53
tp54
Rp55
sg14
g10
(S'\x07\xe3\n\x18\x163\x0f\n\xe8\xf8'
p56
tp57
Rp58
sg18
(dp59
g20
I1
sg21
(dp60
g23
(lp61
I1
asg25
(lp62
I1
asg27
(lp63
I1
asg29
(lp64
I1
assg31
(g32
g33
tp65
sg35
(dp66
g23
(lp67
F0.0
asg25
(lp68
F20.0
asg27
(lp69
F100.0
asg29
(lp70
I0
assg41
Nssg42
Nsg43
Nsg44
I2
sg45
I0
sg46
(dp71
g48
g49
sg50
F0.0384
ssg20
I1
sg51
Nsa(dp72
g9
g10
(S'\x07\xe3\n\x18\x17!#\x04\x9f\x98'
p73
tp74
Rp75
sg14
g10
(S'\x07\xe3\n\x18\x17\x0b\x11\x06Q0'
p76
tp77
Rp78
sg18
(dp79
g20
I2
sg21
(dp80
g23
(lp81
I2
asg25
(lp82
I2
asg27
(lp83
I2
asg29
(lp84
I2
assg31
(g32
g33
tp85
sg35
(dp86
g23
(lp87
F80.0
asg25
(lp88
F80.0
asg27
(lp89
F100.0
asg29
(lp90
I0
assg41
Nssg42
Nsg43
Nsg44
I2
sg45
I0
sg46
(dp91
g48
g49
sg50
F0.0069
ssg20
I2
sg51
Nsa(dp92
g9
g10
(S'\x07\xe3\n\x18\x1730\x07\x95h'
p93
tp94
Rp95
sg14
g10
(S'\x07\xe3\n\x18\x17!#\x04\xa7h'
p96
tp97
Rp98
sg18
(dp99
g20
I3
sg21
(dp100
g23
(lp101
I3
asg25
(lp102
I3
asg27
(lp103
I3
asg29
(lp104
I3
assg31
(g32
g33
tp105
sg35
(dp106
g23
(lp107
F20.0
asg25
(lp108
F40.0
asg27
(lp109
F40.0
asg29
(lp110
I0
assg41
Nssg42
Nsg43
Nsg44
I2
sg45
I0
sg46
(dp111
g48
g49
sg50
F0.0138
ssg20
I3
sg51
Nsa(dp112
g9
g10
(S'\x07\xe3\n\x19\x00\x087\x00U\xf0'
p113
tp114
Rp115
sg14
g10
(S'\x07\xe3\n\x18\x1730\x07\xa1 '
p116
tp117
Rp118
sg18
(dp119
g20
I4
sg21
(dp120
g23
(lp121
I4
asg25
(lp122
I4
asg27
(lp123
I4
asg29
(lp124
I4
assg31
(g32
g33
tp125
sg35
(dp126
g23
(lp127
F0.0
asg25
(lp128
F0.0
asg27
(lp129
F0.0
asg29
(lp130
I0
assg41
Nssg42
Nsg43
Nsg44
I2
sg45
I0
sg46
(dp131
g48
g49
sg50
F0.0383
ssg20
I4
sg51
Nsa(dp132
S'refresh_time'
p133
g10
(S'\x07\xe3\n\x19\x00\x1b-\nk\xf8'
p134
tp135
Rp136
sS'book_time'
p137
g10
(S'\x07\xe3\n\x19\x00\x087\x00y\x18'
p138
tp139
Rp140
sS'misc'
p141
(dp142
S'tid'
p143
I5
sS'idxs'
p144
(dp145
S'units1'
p146
(lp147
I5
asS'units3'
p148
(lp149
I5
asS'units2'
p150
(lp151
I5
asS'batch_size'
p152
(lp153
I5
assS'cmd'
p154
(S'domain_attachment'
p155
S'FMinIter_Domain'
p156
tp157
sS'vals'
p158
(dp159
g146
(lp160
F20.0
asg148
(lp161
F100.0
asg150
(lp162
F100.0
asg152
(lp163
I0
assS'workdir'
p164
NssS'state'
p165
I2
sg143
I5
sS'exp_key'
p166
NsS'version'
p167
I0
sS'result'
p168
(dp169
S'status'
p170
S'ok'
p171
sS'loss'
p172
F0.0132
ssS'owner'
p173
NsS'spec'
p174
Nsa(dp175
S'refresh_time'
p176
g10
(S'\x07\xe3\n\x19\x00.\x1f\x0eDX'
p177
tp178
Rp179
sS'book_time'
p180
g10
(S'\x07\xe3\n\x19\x00\x1b-\n\x96\xf0'
p181
tp182
Rp183
sS'misc'
p184
(dp185
S'tid'
p186
I6
sS'idxs'
p187
(dp188
S'units1'
p189
(lp190
I6
asS'units3'
p191
(lp192
I6
asS'units2'
p193
(lp194
I6
asS'batch_size'
p195
(lp196
I6
assS'cmd'
p197
(S'domain_attachment'
p198
S'FMinIter_Domain'
p199
tp200
sS'vals'
p201
(dp202
g189
(lp203
F0.0
asg191
(lp204
F0.0
asg193
(lp205
F80.0
asg195
(lp206
I0
assS'workdir'
p207
NssS'exp_key'
p208
NsS'owner'
p209
NsS'state'
p210
I2
sS'version'
p211
I0
sS'result'
p212
(dp213
S'status'
p214
S'ok'
p215
sS'loss'
p216
F0.0383
ssg186
I6
sS'spec'
p217
Nsa(dp218
S'refresh_time'
p219
g10
(S'\x07\xe3\n\x19\x01\x06;\x0b\x0c '
p220
tp221
Rp222
sS'book_time'
p223
g10
(S'\x07\xe3\n\x19\x00.\x1f\x0eoP'
p224
tp225
Rp226
sS'misc'
p227
(dp228
S'tid'
p229
I7
sS'idxs'
p230
(dp231
S'units1'
p232
(lp233
I7
asS'units3'
p234
(lp235
I7
asS'units2'
p236
(lp237
I7
asS'batch_size'
p238
(lp239
I7
assS'cmd'
p240
(S'domain_attachment'
p241
S'FMinIter_Domain'
p242
tp243
sS'vals'
p244
(dp245
g232
(lp246
F80.0
asg234
(lp247
F100.0
asg236
(lp248
F100.0
asg238
(lp249
I0
assS'workdir'
p250
NssS'state'
p251
I2
sg229
I7
sS'exp_key'
p252
NsS'version'
p253
I0
sS'result'
p254
(dp255
S'status'
p256
S'ok'
p257
sS'loss'
p258
F0.0067
ssS'owner'
p259
NsS'spec'
p260
Nsa(dp261
S'refresh_time'
p262
g10
(S'\x07\xe3\n\x19\x01\x1b\x0c\x0e\xc5@'
p263
tp264
Rp265
sS'book_time'
p266
g10
(S'\x07\xe3\n\x19\x01\x06;\x0bB\xd0'
p267
tp268
Rp269
sS'misc'
p270
(dp271
S'tid'
p272
I8
sS'idxs'
p273
(dp274
S'units1'
p275
(lp276
I8
asS'units3'
p277
(lp278
I8
asS'units2'
p279
(lp280
I8
asS'batch_size'
p281
(lp282
I8
assS'cmd'
p283
(S'domain_attachment'
p284
S'FMinIter_Domain'
p285
tp286
sS'vals'
p287
(dp288
g275
(lp289
F60.0
asg277
(lp290
F60.0
asg279
(lp291
F60.0
asg281
(lp292
I0
assS'workdir'
p293
NssS'exp_key'
p294
NsS'owner'
p295
NsS'state'
p296
I2
sS'version'
p297
I0
sS'result'
p298
(dp299
S'status'
p300
S'ok'
p301
sS'loss'
p302
F0.0078
ssg272
I8
sS'spec'
p303
Nsa(dp304
S'refresh_time'
p305
g10
(S'\x07\xe3\n\x19\x01/2\x05r\x88'
p306
tp307
Rp308
sS'book_time'
p309
g10
(S'\x07\xe3\n\x19\x01\x1b\x0c\x0e\xecP'
p310
tp311
Rp312
sS'misc'
p313
(dp314
S'tid'
p315
I9
sS'idxs'
p316
(dp317
S'units1'
p318
(lp319
I9
asS'units3'
p320
(lp321
I9
asS'units2'
p322
(lp323
I9
asS'batch_size'
p324
(lp325
I9
assS'cmd'
p326
(S'domain_attachment'
p327
S'FMinIter_Domain'
p328
tp329
sS'vals'
p330
(dp331
g318
(lp332
F60.0
asg320
(lp333
F100.0
asg322
(lp334
F20.0
asg324
(lp335
I0
assS'workdir'
p336
NssS'state'
p337
I2
sg315
I9
sS'exp_key'
p338
NsS'version'
p339
I0
sS'result'
p340
(dp341
S'status'
p342
S'ok'
p343
sS'loss'
p344
F0.0077
ssS'owner'
p345
NsS'spec'
p346
Nsa(dp347
S'refresh_time'
p348
g10
(S'\x07\xe3\n\x19\x02\x07\x02\r\x13\xa8'
p349
tp350
Rp351
sS'book_time'
p352
g10
(S'\x07\xe3\n\x19\x01/2\x05\xa98'
p353
tp354
Rp355
sS'misc'
p356
(dp357
S'tid'
p358
I10
sS'idxs'
p359
(dp360
S'units1'
p361
(lp362
I10
asS'units3'
p363
(lp364
I10
asS'units2'
p365
(lp366
I10
asS'batch_size'
p367
(lp368
I10
assS'cmd'
p369
(S'domain_attachment'
p370
S'FMinIter_Domain'
p371
tp372
sS'vals'
p373
(dp374
g361
(lp375
F100.0
asg363
(lp376
F100.0
asg365
(lp377
F20.0
asg367
(lp378
I0
assS'workdir'
p379
NssS'exp_key'
p380
NsS'owner'
p381
NsS'state'
p382
I2
sS'version'
p383
I0
sS'result'
p384
(dp385
S'status'
p386
S'ok'
p387
sS'loss'
p388
F0.0073
ssg358
I10
sS'spec'
p389
Nsa(dp390
S'refresh_time'
p391
g10
(S'\x07\xe3\n\x19\x02\x19 \r\xeeh'
p392
tp393
Rp394
sS'book_time'
p395
g10
(S'\x07\xe3\n\x19\x02\x07\x02\r>\xa0'
p396
tp397
Rp398
sS'misc'
p399
(dp400
S'tid'
p401
I11
sS'idxs'
p402
(dp403
S'units1'
p404
(lp405
I11
asS'units3'
p406
(lp407
I11
asS'units2'
p408
(lp409
I11
asS'batch_size'
p410
(lp411
I11
assS'cmd'
p412
(S'domain_attachment'
p413
S'FMinIter_Domain'
p414
tp415
sS'vals'
p416
(dp417
g404
(lp418
F60.0
asg406
(lp419
F20.0
asg408
(lp420
F0.0
asg410
(lp421
I0
assS'workdir'
p422
NssS'state'
p423
I2
sg401
I11
sS'exp_key'
p424
NsS'version'
p425
I0
sS'result'
p426
(dp427
S'status'
p428
S'ok'
p429
sS'loss'
p430
F0.0078
ssS'owner'
p431
NsS'spec'
p432
Nsa(dp433
S'refresh_time'
p434
g10
(S'\x07\xe3\n\x19\x02+\x11\x06"P'
p435
tp436
Rp437
sS'book_time'
p438
g10
(S'\x07\xe3\n\x19\x02\x19 \x0e%\x18'
p439
tp440
Rp441
sS'misc'
p442
(dp443
S'tid'
p444
I12
sS'idxs'
p445
(dp446
S'units1'
p447
(lp448
I12
asS'units3'
p449
(lp450
I12
asS'units2'
p451
(lp452
I12
asS'batch_size'
p453
(lp454
I12
assS'cmd'
p455
(S'domain_attachment'
p456
S'FMinIter_Domain'
p457
tp458
sS'vals'
p459
(dp460
g447
(lp461
F0.0
asg449
(lp462
F80.0
asg451
(lp463
F80.0
asg453
(lp464
I0
assS'workdir'
p465
NssS'exp_key'
p466
NsS'owner'
p467
NsS'state'
p468
I2
sS'version'
p469
I0
sS'result'
p470
(dp471
S'status'
p472
S'ok'
p473
sS'loss'
p474
F0.0383
ssg444
I12
sS'spec'
p475
Nsa(dp476
S'refresh_time'
p477
g10
(S'\x07\xe3\n\x19\x03\x06\n\x073\xc0'
p478
tp479
Rp480
sS'book_time'
p481
g10
(S'\x07\xe3\n\x19\x02+\x11\x06U\x18'
p482
tp483
Rp484
sS'misc'
p485
(dp486
S'tid'
p487
I13
sS'idxs'
p488
(dp489
S'units1'
p490
(lp491
I13
asS'units3'
p492
(lp493
I13
asS'units2'
p494
(lp495
I13
asS'batch_size'
p496
(lp497
I13
assS'cmd'
p498
(S'domain_attachment'
p499
S'FMinIter_Domain'
p500
tp501
sS'vals'
p502
(dp503
g490
(lp504
F80.0
asg492
(lp505
F20.0
asg494
(lp506
F20.0
asg496
(lp507
I0
assS'workdir'
p508
NssS'state'
p509
I2
sg487
I13
sS'exp_key'
p510
NsS'version'
p511
I0
sS'result'
p512
(dp513
S'status'
p514
S'ok'
p515
sS'loss'
p516
F0.008
ssS'owner'
p517
NsS'spec'
p518
Nsa(dp519
S'refresh_time'
p520
g10
(S'\x07\xe3\n\x19\x03\x1b\x17\n\xae`'
p521
tp522
Rp523
sS'book_time'
p524
g10
(S'\x07\xe3\n\x19\x03\x06\n\x07z\x10'
p525
tp526
Rp527
sS'misc'
p528
(dp529
S'tid'
p530
I14
sS'idxs'
p531
(dp532
S'units1'
p533
(lp534
I14
asS'units3'
p535
(lp536
I14
asS'units2'
p537
(lp538
I14
asS'batch_size'
p539
(lp540
I14
assS'cmd'
p541
(S'domain_attachment'
p542
S'FMinIter_Domain'
p543
tp544
sS'vals'
p545
(dp546
g533
(lp547
F40.0
asg535
(lp548
F80.0
asg537
(lp549
F60.0
asg539
(lp550
I0
assS'workdir'
p551
NssS'exp_key'
p552
NsS'owner'
p553
NsS'state'
p554
I2
sS'version'
p555
I0
sS'result'
p556
(dp557
S'status'
p558
S'ok'
p559
sS'loss'
p560
F0.008
ssg530
I14
sS'spec'
p561
Nsa(dp562
S'refresh_time'
p563
g10
(S'\x07\xe3\n\x19\x03/0\tj('
p564
tp565
Rp566
sS'book_time'
p567
g10
(S'\x07\xe3\n\x19\x03\x1b\x17\n\xf8\x98'
p568
tp569
Rp570
sS'misc'
p571
(dp572
S'tid'
p573
I15
sS'idxs'
p574
(dp575
S'units1'
p576
(lp577
I15
asS'units3'
p578
(lp579
I15
asS'units2'
p580
(lp581
I15
asS'batch_size'
p582
(lp583
I15
assS'cmd'
p584
(S'domain_attachment'
p585
S'FMinIter_Domain'
p586
tp587
sS'vals'
p588
(dp589
g576
(lp590
F0.0
asg578
(lp591
F100.0
asg580
(lp592
F60.0
asg582
(lp593
I0
assS'workdir'
p594
NssS'state'
p595
I2
sg573
I15
sS'exp_key'
p596
NsS'version'
p597
I0
sS'result'
p598
(dp599
S'status'
p600
S'ok'
p601
sS'loss'
p602
F0.0383
ssS'owner'
p603
NsS'spec'
p604
Nsa(dp605
S'refresh_time'
p606
g10
(S'\x07\xe3\n\x19\x04\t5\x07\xbcx'
p607
tp608
Rp609
sS'book_time'
p610
g10
(S'\x07\xe3\n\x19\x03/0\t\xa4\xc0'
p611
tp612
Rp613
sS'misc'
p614
(dp615
S'tid'
p616
I16
sS'idxs'
p617
(dp618
S'units1'
p619
(lp620
I16
asS'units3'
p621
(lp622
I16
asS'units2'
p623
(lp624
I16
asS'batch_size'
p625
(lp626
I16
assS'cmd'
p627
(S'domain_attachment'
p628
S'FMinIter_Domain'
p629
tp630
sS'vals'
p631
(dp632
g619
(lp633
F0.0
asg621
(lp634
F60.0
asg623
(lp635
F0.0
asg625
(lp636
I0
assS'workdir'
p637
NssS'exp_key'
p638
NsS'owner'
p639
NsS'state'
p640
I2
sS'version'
p641
I0
sS'result'
p642
(dp643
S'status'
p644
S'ok'
p645
sS'loss'
p646
F0.0383
ssg616
I16
sS'spec'
p647
Nsa(dp648
S'refresh_time'
p649
g10
(S'\x07\xe3\n\x19\x04"(\x00.\xe0'
p650
tp651
Rp652
sS'book_time'
p653
g10
(S'\x07\xe3\n\x19\x04\t5\x08\n\x98'
p654
tp655
Rp656
sS'misc'
p657
(dp658
S'tid'
p659
I17
sS'idxs'
p660
(dp661
S'units1'
p662
(lp663
I17
asS'units3'
p664
(lp665
I17
asS'units2'
p666
(lp667
I17
asS'batch_size'
p668
(lp669
I17
assS'cmd'
p670
(S'domain_attachment'
p671
S'FMinIter_Domain'
p672
tp673
sS'vals'
p674
(dp675
g662
(lp676
F20.0
asg664
(lp677
F80.0
asg666
(lp678
F80.0
asg668
(lp679
I0
assS'workdir'
p680
NssS'state'
p681
I2
sg659
I17
sS'exp_key'
p682
NsS'version'
p683
I0
sS'result'
p684
(dp685
S'status'
p686
S'ok'
p687
sS'loss'
p688
F0.0131
ssS'owner'
p689
NsS'spec'
p690
Nsa(dp691
S'refresh_time'
p692
g10
(S'\x07\xe3\n\x19\x04:+\x05~@'
p693
tp694
Rp695
sS'book_time'
p696
g10
(S'\x07\xe3\n\x19\x04"(\x00}\x00'
p697
tp698
Rp699
sS'misc'
p700
(dp701
S'tid'
p702
I18
sS'idxs'
p703
(dp704
S'units1'
p705
(lp706
I18
asS'units3'
p707
(lp708
I18
asS'units2'
p709
(lp710
I18
asS'batch_size'
p711
(lp712
I18
assS'cmd'
p713
(S'domain_attachment'
p714
S'FMinIter_Domain'
p715
tp716
sS'vals'
p717
(dp718
g705
(lp719
F60.0
asg707
(lp720
F40.0
asg709
(lp721
F20.0
asg711
(lp722
I0
assS'workdir'
p723
NssS'exp_key'
p724
NsS'owner'
p725
NsS'state'
p726
I2
sS'version'
p727
I0
sS'result'
p728
(dp729
S'status'
p730
S'ok'
p731
sS'loss'
p732
F0.0078
ssg702
I18
sS'spec'
p733
Nsa(dp734
S'refresh_time'
p735
g10
(S'\x07\xe3\n\x19\x05\x17\x1e\x04|p'
p736
tp737
Rp738
sS'book_time'
p739
g10
(S'\x07\xe3\n\x19\x04:+\x05\xcc`'
p740
tp741
Rp742
sS'misc'
p743
(dp744
S'tid'
p745
I19
sS'idxs'
p746
(dp747
S'units1'
p748
(lp749
I19
asS'units3'
p750
(lp751
I19
asS'units2'
p752
(lp753
I19
asS'batch_size'
p754
(lp755
I19
assS'cmd'
p756
(S'domain_attachment'
p757
S'FMinIter_Domain'
p758
tp759
sS'vals'
p760
(dp761
g748
(lp762
F20.0
asg750
(lp763
F60.0
asg752
(lp764
F60.0
asg754
(lp765
I0
assS'workdir'
p766
NssS'state'
p767
I2
sg745
I19
sS'exp_key'
p768
NsS'version'
p769
I0
sS'result'
p770
(dp771
S'status'
p772
S'ok'
p773
sS'loss'
p774
F0.0138
ssS'owner'
p775
NsS'spec'
p776
Nsa(dp777
S'refresh_time'
p778
g10
(S'\x07\xe3\n\x19\x05.*\x00\x13\x88'
p779
tp780
Rp781
sS'book_time'
p782
g10
(S'\x07\xe3\n\x19\x05\x17\x1e\x04\xbe\xd8'
p783
tp784
Rp785
sS'misc'
p786
(dp787
S'tid'
p788
I20
sS'idxs'
p789
(dp790
S'units1'
p791
(lp792
I20
asS'units3'
p793
(lp794
I20
asS'units2'
p795
(lp796
I20
asS'batch_size'
p797
(lp798
I20
assS'cmd'
p799
(S'domain_attachment'
p800
S'FMinIter_Domain'
p801
tp802
sS'vals'
p803
(dp804
g791
(lp805
F80.0
asg793
(lp806
F0.0
asg795
(lp807
F100.0
asg797
(lp808
I0
assS'workdir'
p809
NssS'exp_key'
p810
NsS'owner'
p811
NsS'state'
p812
I2
sS'version'
p813
I0
sS'result'
p814
(dp815
S'status'
p816
S'ok'
p817
sS'loss'
p818
F0.0068
ssg788
I20
sS'spec'
p819
Nsa(dp820
S'refresh_time'
p821
g10
(S'\x07\xe3\n\x19\x06\x0b/\x0c\x1d\x90'
p822
tp823
Rp824
sS'book_time'
p825
g10
(S'\x07\xe3\n\x19\x05.*\x00R\x08'
p826
tp827
Rp828
sS'misc'
p829
(dp830
S'tid'
p831
I21
sS'idxs'
p832
(dp833
S'units1'
p834
(lp835
I21
asS'units3'
p836
(lp837
I21
asS'units2'
p838
(lp839
I21
asS'batch_size'
p840
(lp841
I21
assS'cmd'
p842
(S'domain_attachment'
p843
S'FMinIter_Domain'
p844
tp845
sS'vals'
p846
(dp847
g834
(lp848
F80.0
asg836
(lp849
F20.0
asg838
(lp850
F40.0
asg840
(lp851
I0
assS'workdir'
p852
NssS'state'
p853
I2
sg831
I21
sS'exp_key'
p854
NsS'version'
p855
I0
sS'result'
p856
(dp857
S'status'
p858
S'ok'
p859
sS'loss'
p860
F0.0074
ssS'owner'
p861
NsS'spec'
p862
Nsa(dp863
S'refresh_time'
p864
g10
(S"\x07\xe3\n\x19\x06+'\n\xdd@"
p865
tp866
Rp867
sS'book_time'
p868
g10
(S'\x07\xe3\n\x19\x06\x0b/\x0c{P'
p869
tp870
Rp871
sS'misc'
p872
(dp873
S'tid'
p874
I22
sS'idxs'
p875
(dp876
S'units1'
p877
(lp878
I22
asS'units3'
p879
(lp880
I22
asS'units2'
p881
(lp882
I22
asS'batch_size'
p883
(lp884
I22
assS'cmd'
p885
(S'domain_attachment'
p886
S'FMinIter_Domain'
p887
tp888
sS'vals'
p889
(dp890
g877
(lp891
F80.0
asg879
(lp892
F0.0
asg881
(lp893
F80.0
asg883
(lp894
I0
assS'workdir'
p895
NssS'exp_key'
p896
NsS'owner'
p897
NsS'state'
p898
I2
sS'version'
p899
I0
sS'result'
p900
(dp901
S'status'
p902
S'ok'
p903
sS'loss'
p904
F0.0071
ssg874
I22
sS'spec'
p905
Nsa(dp906
S'refresh_time'
p907
g10
(S'\x07\xe3\n\x19\x07\x04\x1f\tN\xd0'
p908
tp909
Rp910
sS'book_time'
p911
g10
(S"\x07\xe3\n\x19\x06+'\x0b'x"
p912
tp913
Rp914
sS'misc'
p915
(dp916
S'tid'
p917
I23
sS'idxs'
p918
(dp919
S'units1'
p920
(lp921
I23
asS'units3'
p922
(lp923
I23
asS'units2'
p924
(lp925
I23
asS'batch_size'
p926
(lp927
I23
assS'cmd'
p928
(S'domain_attachment'
p929
S'FMinIter_Domain'
p930
tp931
sS'vals'
p932
(dp933
g920
(lp934
F60.0
asg922
(lp935
F40.0
asg924
(lp936
F80.0
asg926
(lp937
I0
assS'workdir'
p938
NssS'state'
p939
I2
sg917
I23
sS'exp_key'
p940
NsS'version'
p941
I0
sS'result'
p942
(dp943
S'status'
p944
S'ok'
p945
sS'loss'
p946
F0.0077
ssS'owner'
p947
NsS'spec'
p948
Nsa(dp949
S'refresh_time'
p950
g10
(S'\x07\xe3\n\x19\x07\x1b\x0c\x00ix'
p951
tp952
Rp953
sS'book_time'
p954
g10
(S'\x07\xe3\n\x19\x07\x04\x1f\t\x95 '
p955
tp956
Rp957
sS'misc'
p958
(dp959
S'tid'
p960
I24
sS'idxs'
p961
(dp962
S'units1'
p963
(lp964
I24
asS'units3'
p965
(lp966
I24
asS'units2'
p967
(lp968
I24
asS'batch_size'
p969
(lp970
I24
assS'cmd'
p971
(S'domain_attachment'
p972
S'FMinIter_Domain'
p973
tp974
sS'vals'
p975
(dp976
g963
(lp977
F100.0
asg965
(lp978
F0.0
asg967
(lp979
F20.0
asg969
(lp980
I0
assS'workdir'
p981
NssS'exp_key'
p982
NsS'owner'
p983
NsS'state'
p984
I2
sS'version'
p985
I0
sS'result'
p986
(dp987
S'status'
p988
S'ok'
p989
sS'loss'
p990
F0.0074
ssg960
I24
sS'spec'
p991
Nsa(dp992
S'refresh_time'
p993
g10
(S'\x07\xe3\n\x19\x070\x0f\x05\xd8\x18'
p994
tp995
Rp996
sS'book_time'
p997
g10
(S'\x07\xe3\n\x19\x07\x1b\x0c\x00\xb3\xb0'
p998
tp999
Rp1000
sS'misc'
p1001
(dp1002
S'tid'
p1003
I25
sS'idxs'
p1004
(dp1005
S'units1'
p1006
(lp1007
I25
asS'units3'
p1008
(lp1009
I25
asS'units2'
p1010
(lp1011
I25
asS'batch_size'
p1012
(lp1013
I25
assS'cmd'
p1014
(S'domain_attachment'
p1015
S'FMinIter_Domain'
p1016
tp1017
sS'vals'
p1018
(dp1019
g1006
(lp1020
F100.0
asg1008
(lp1021
F100.0
asg1010
(lp1022
F40.0
asg1012
(lp1023
I0
assS'workdir'
p1024
NssS'state'
p1025
I2
sg1003
I25
sS'exp_key'
p1026
NsS'version'
p1027
I0
sS'result'
p1028
(dp1029
S'status'
p1030
S'ok'
p1031
sS'loss'
p1032
F0.0074
ssS'owner'
p1033
NsS'spec'
p1034
Nsa(dp1035
S'refresh_time'
p1036
g10
(S'\x07\xe3\n\x19\x08\x06\x04\x0ew '
p1037
tp1038
Rp1039
sS'book_time'
p1040
g10
(S'\x07\xe3\n\x19\x070\x0f\x06&8'
p1041
tp1042
Rp1043
sS'misc'
p1044
(dp1045
S'tid'
p1046
I26
sS'idxs'
p1047
(dp1048
S'units1'
p1049
(lp1050
I26
asS'units3'
p1051
(lp1052
I26
asS'units2'
p1053
(lp1054
I26
asS'batch_size'
p1055
(lp1056
I26
assS'cmd'
p1057
(S'domain_attachment'
p1058
S'FMinIter_Domain'
p1059
tp1060
sS'vals'
p1061
(dp1062
g1049
(lp1063
F0.0
asg1051
(lp1064
F20.0
asg1053
(lp1065
F80.0
asg1055
(lp1066
I0
assS'workdir'
p1067
NssS'exp_key'
p1068
NsS'owner'
p1069
NsS'state'
p1070
I2
sS'version'
p1071
I0
sS'result'
p1072
(dp1073
S'status'
p1074
S'ok'
p1075
sS'loss'
p1076
F0.0383
ssg1046
I26
sS'spec'
p1077
Nsa(dp1078
S'refresh_time'
p1079
g10
(S'\x07\xe3\n\x19\x08\x19 \x05\xe3\xd0'
p1080
tp1081
Rp1082
sS'book_time'
p1083
g10
(S'\x07\xe3\n\x19\x08\x06\x04\x0e\xbdp'
p1084
tp1085
Rp1086
sS'misc'
p1087
(dp1088
S'tid'
p1089
I27
sS'idxs'
p1090
(dp1091
S'units1'
p1092
(lp1093
I27
asS'units3'
p1094
(lp1095
I27
asS'units2'
p1096
(lp1097
I27
asS'batch_size'
p1098
(lp1099
I27
assS'cmd'
p1100
(S'domain_attachment'
p1101
S'FMinIter_Domain'
p1102
tp1103
sS'vals'
p1104
(dp1105
g1092
(lp1106
F20.0
asg1094
(lp1107
F20.0
asg1096
(lp1108
F40.0
asg1098
(lp1109
I0
assS'workdir'
p1110
NssS'state'
p1111
I2
sg1089
I27
sS'exp_key'
p1112
NsS'version'
p1113
I0
sS'result'
p1114
(dp1115
S'status'
p1116
S'ok'
p1117
sS'loss'
p1118
F0.0138
ssS'owner'
p1119
NsS'spec'
p1120
Nsa(dp1121
S'refresh_time'
p1122
g10
(S'\x07\xe3\n\x19\x08/\x05\n`@'
p1123
tp1124
Rp1125
sS'book_time'
p1126
g10
(S'\x07\xe3\n\x19\x08\x19 \x06Ex'
p1127
tp1128
Rp1129
sS'misc'
p1130
(dp1131
S'tid'
p1132
I28
sS'idxs'
p1133
(dp1134
S'units1'
p1135
(lp1136
I28
asS'units3'
p1137
(lp1138
I28
asS'units2'
p1139
(lp1140
I28
asS'batch_size'
p1141
(lp1142
I28
assS'cmd'
p1143
(S'domain_attachment'
p1144
S'FMinIter_Domain'
p1145
tp1146
sS'vals'
p1147
(dp1148
g1135
(lp1149
F40.0
asg1137
(lp1150
F80.0
asg1139
(lp1151
F20.0
asg1141
(lp1152
I0
assS'workdir'
p1153
NssS'exp_key'
p1154
NsS'owner'
p1155
NsS'state'
p1156
I2
sS'version'
p1157
I0
sS'result'
p1158
(dp1159
S'status'
p1160
S'ok'
p1161
sS'loss'
p1162
F0.0084
ssg1132
I28
sS'spec'
p1163
Nsa(dp1164
S'refresh_time'
p1165
g10
(S'\x07\xe3\n\x19\t\x08\x1c\x07}\xf8'
p1166
tp1167
Rp1168
sS'book_time'
p1169
g10
(S'\x07\xe3\n\x19\x08/\x05\n\xb2H'
p1170
tp1171
Rp1172
sS'misc'
p1173
(dp1174
S'tid'
p1175
I29
sS'idxs'
p1176
(dp1177
S'units1'
p1178
(lp1179
I29
asS'units3'
p1180
(lp1181
I29
asS'units2'
p1182
(lp1183
I29
asS'batch_size'
p1184
(lp1185
I29
assS'cmd'
p1186
(S'domain_attachment'
p1187
S'FMinIter_Domain'
p1188
tp1189
sS'vals'
p1190
(dp1191
g1178
(lp1192
F60.0
asg1180
(lp1193
F20.0
asg1182
(lp1194
F60.0
asg1184
(lp1195
I0
assS'workdir'
p1196
NssS'state'
p1197
I2
sg1175
I29
sS'exp_key'
p1198
NsS'version'
p1199
I0
sS'result'
p1200
(dp1201
S'status'
p1202
S'ok'
p1203
sS'loss'
p1204
F0.0078
ssS'owner'
p1205
NsS'spec'
p1206
Nsa(dp1207
S'refresh_time'
p1208
g10
(S'\x07\xe3\n\x19\t \x08\n\xcd\xa0'
p1209
tp1210
Rp1211
sS'book_time'
p1212
g10
(S'\x07\xe3\n\x19\t\x08\x1c\x07\xc4H'
p1213
tp1214
Rp1215
sS'misc'
p1216
(dp1217
S'tid'
p1218
I30
sS'idxs'
p1219
(dp1220
S'units1'
p1221
(lp1222
I30
asS'units3'
p1223
(lp1224
I30
asS'units2'
p1225
(lp1226
I30
asS'batch_size'
p1227
(lp1228
I30
assS'cmd'
p1229
(S'domain_attachment'
p1230
S'FMinIter_Domain'
p1231
tp1232
sS'vals'
p1233
(dp1234
g1221
(lp1235
F80.0
asg1223
(lp1236
F60.0
asg1225
(lp1237
F20.0
asg1227
(lp1238
I0
assS'workdir'
p1239
NssS'exp_key'
p1240
NsS'owner'
p1241
NsS'state'
p1242
I2
sS'version'
p1243
I0
sS'result'
p1244
(dp1245
S'status'
p1246
S'ok'
p1247
sS'loss'
p1248
F0.0079
ssg1218
I30
sS'spec'
p1249
Nsa(dp1250
S'refresh_time'
p1251
g10
(S'\x07\xe3\n\x19\t61\x00\xe2\x90'
p1252
tp1253
Rp1254
sS'book_time'
p1255
g10
(S'\x07\xe3\n\x19\t \x08\x0b;\x00'
p1256
tp1257
Rp1258
sS'misc'
p1259
(dp1260
S'tid'
p1261
I31
sS'idxs'
p1262
(dp1263
S'units1'
p1264
(lp1265
I31
asS'units3'
p1266
(lp1267
I31
asS'units2'
p1268
(lp1269
I31
asS'batch_size'
p1270
(lp1271
I31
assS'cmd'
p1272
(S'domain_attachment'
p1273
S'FMinIter_Domain'
p1274
tp1275
sS'vals'
p1276
(dp1277
g1264
(lp1278
F100.0
asg1266
(lp1279
F40.0
asg1268
(lp1280
F40.0
asg1270
(lp1281
I0
assS'workdir'
p1282
NssS'state'
p1283
I2
sg1261
I31
sS'exp_key'
p1284
NsS'version'
p1285
I0
sS'result'
p1286
(dp1287
S'status'
p1288
S'ok'
p1289
sS'loss'
p1290
F0.0075
ssS'owner'
p1291
NsS'spec'
p1292
Nsa(dp1293
S'refresh_time'
p1294
g10
(S'\x07\xe3\n\x19\n\x0e\x0e\x0b\xa8`'
p1295
tp1296
Rp1297
sS'book_time'
p1298
g10
(S'\x07\xe3\n\x19\t61\x01<h'
p1299
tp1300
Rp1301
sS'misc'
p1302
(dp1303
S'tid'
p1304
I32
sS'idxs'
p1305
(dp1306
S'units1'
p1307
(lp1308
I32
asS'units3'
p1309
(lp1310
I32
asS'units2'
p1311
(lp1312
I32
asS'batch_size'
p1313
(lp1314
I32
assS'cmd'
p1315
(S'domain_attachment'
p1316
S'FMinIter_Domain'
p1317
tp1318
sS'vals'
p1319
(dp1320
g1307
(lp1321
F80.0
asg1309
(lp1322
F20.0
asg1311
(lp1323
F100.0
asg1313
(lp1324
I0
assS'workdir'
p1325
NssS'exp_key'
p1326
NsS'owner'
p1327
NsS'state'
p1328
I2
sS'version'
p1329
I0
sS'result'
p1330
(dp1331
S'status'
p1332
S'ok'
p1333
sS'loss'
p1334
F0.0073
ssg1304
I32
sS'spec'
p1335
Nsa(dp1336
S'refresh_time'
p1337
g10
(S'\x07\xe3\n\x19\n \x12\x04\xcex'
p1338
tp1339
Rp1340
sS'book_time'
p1341
g10
(S'\x07\xe3\n\x19\n\x0e\x0e\x0b\xfeP'
p1342
tp1343
Rp1344
sS'misc'
p1345
(dp1346
S'tid'
p1347
I33
sS'idxs'
p1348
(dp1349
S'units1'
p1350
(lp1351
I33
asS'units3'
p1352
(lp1353
I33
asS'units2'
p1354
(lp1355
I33
asS'batch_size'
p1356
(lp1357
I33
assS'cmd'
p1358
(S'domain_attachment'
p1359
S'FMinIter_Domain'
p1360
tp1361
sS'vals'
p1362
(dp1363
g1350
(lp1364
F40.0
asg1352
(lp1365
F40.0
asg1354
(lp1366
F40.0
asg1356
(lp1367
I0
assS'workdir'
p1368
NssS'state'
p1369
I2
sg1347
I33
sS'exp_key'
p1370
NsS'version'
p1371
I0
sS'result'
p1372
(dp1373
S'status'
p1374
S'ok'
p1375
sS'loss'
p1376
F0.0082
ssS'owner'
p1377
NsS'spec'
p1378
Nsa(dp1379
S'refresh_time'
p1380
g10
(S'\x07\xe3\n\x19\n3;\x02.\x98'
p1381
tp1382
Rp1383
sS'book_time'
p1384
g10
(S'\x07\xe3\n\x19\n \x12\x050 '
p1385
tp1386
Rp1387
sS'misc'
p1388
(dp1389
S'tid'
p1390
I34
sS'idxs'
p1391
(dp1392
S'units1'
p1393
(lp1394
I34
asS'units3'
p1395
(lp1396
I34
asS'units2'
p1397
(lp1398
I34
asS'batch_size'
p1399
(lp1400
I34
assS'cmd'
p1401
(S'domain_attachment'
p1402
S'FMinIter_Domain'
p1403
tp1404
sS'vals'
p1405
(dp1406
g1393
(lp1407
F100.0
asg1395
(lp1408
F40.0
asg1397
(lp1409
F60.0
asg1399
(lp1410
I0
assS'workdir'
p1411
NssS'exp_key'
p1412
NsS'owner'
p1413
NsS'state'
p1414
I2
sS'version'
p1415
I0
sS'result'
p1416
(dp1417
S'status'
p1418
S'ok'
p1419
sS'loss'
p1420
F0.0073
ssg1390
I34
sS'spec'
p1421
Nsa(dp1422
S'refresh_time'
p1423
g10
(S'\x07\xe3\n\x19\x0b\n4\r\xfe\x08'
p1424
tp1425
Rp1426
sS'book_time'
p1427
g10
(S'\x07\xe3\n\x19\n3;\x02\x84\x88'
p1428
tp1429
Rp1430
sS'misc'
p1431
(dp1432
S'tid'
p1433
I35
sS'idxs'
p1434
(dp1435
S'units1'
p1436
(lp1437
I35
asS'units3'
p1438
(lp1439
I35
asS'units2'
p1440
(lp1441
I35
asS'batch_size'
p1442
(lp1443
I35
assS'cmd'
p1444
(S'domain_attachment'
p1445
S'FMinIter_Domain'
p1446
tp1447
sS'vals'
p1448
(dp1449
g1436
(lp1450
F80.0
asg1438
(lp1451
F0.0
asg1440
(lp1452
F60.0
asg1442
(lp1453
I0
assS'workdir'
p1454
NssS'state'
p1455
I2
sg1433
I35
sS'exp_key'
p1456
NsS'version'
p1457
I0
sS'result'
p1458
(dp1459
S'status'
p1460
S'ok'
p1461
sS'loss'
p1462
F0.0073
ssS'owner'
p1463
NsS'spec'
p1464
Nsa(dp1465
S'refresh_time'
p1466
g10
(S'\x07\xe3\n\x19\x0b\x1d\x1e\x02\xc6\xf0'
p1467
tp1468
Rp1469
sS'book_time'
p1470
g10
(S'\x07\xe3\n\x19\x0b\n4\x0eW\xe0'
p1471
tp1472
Rp1473
sS'misc'
p1474
(dp1475
S'tid'
p1476
I36
sS'idxs'
p1477
(dp1478
S'units1'
p1479
(lp1480
I36
asS'units3'
p1481
(lp1482
I36
asS'units2'
p1483
(lp1484
I36
asS'batch_size'
p1485
(lp1486
I36
assS'cmd'
p1487
(S'domain_attachment'
p1488
S'FMinIter_Domain'
p1489
tp1490
sS'vals'
p1491
(dp1492
g1479
(lp1493
F80.0
asg1481
(lp1494
F40.0
asg1483
(lp1495
F20.0
asg1485
(lp1496
I0
assS'workdir'
p1497
NssS'exp_key'
p1498
NsS'owner'
p1499
NsS'state'
p1500
I2
sS'version'
p1501
I0
sS'result'
p1502
(dp1503
S'status'
p1504
S'ok'
p1505
sS'loss'
p1506
F0.0079
ssg1476
I36
sS'spec'
p1507
Nsa(dp1508
S'refresh_time'
p1509
g10
(S'\x07\xe3\n\x19\x0b/6\x0c\xfc8'
p1510
tp1511
Rp1512
sS'book_time'
p1513
g10
(S'\x07\xe3\n\x19\x0b\x1d\x1e\x030h'
p1514
tp1515
Rp1516
sS'misc'
p1517
(dp1518
S'tid'
p1519
I37
sS'idxs'
p1520
(dp1521
S'units1'
p1522
(lp1523
I37
asS'units3'
p1524
(lp1525
I37
asS'units2'
p1526
(lp1527
I37
asS'batch_size'
p1528
(lp1529
I37
assS'cmd'
p1530
(S'domain_attachment'
p1531
S'FMinIter_Domain'
p1532
tp1533
sS'vals'
p1534
(dp1535
g1522
(lp1536
F60.0
asg1524
(lp1537
F60.0
asg1526
(lp1538
F100.0
asg1528
(lp1539
I0
assS'workdir'
p1540
NssS'state'
p1541
I2
sg1519
I37
sS'exp_key'
p1542
NsS'version'
p1543
I0
sS'result'
p1544
(dp1545
S'status'
p1546
S'ok'
p1547
sS'loss'
p1548
F0.0077
ssS'owner'
p1549
NsS'spec'
p1550
Nsa(dp1551
S'refresh_time'
p1552
g10
(S'\x07\xe3\n\x19\x0c\x06;\x0b\x13\xf0'
p1553
tp1554
Rp1555
sS'book_time'
p1556
g10
(S'\x07\xe3\n\x19\x0b/6\rV\x10'
p1557
tp1558
Rp1559
sS'misc'
p1560
(dp1561
S'tid'
p1562
I38
sS'idxs'
p1563
(dp1564
S'units1'
p1565
(lp1566
I38
asS'units3'
p1567
(lp1568
I38
asS'units2'
p1569
(lp1570
I38
asS'batch_size'
p1571
(lp1572
I38
assS'cmd'
p1573
(S'domain_attachment'
p1574
S'FMinIter_Domain'
p1575
tp1576
sS'vals'
p1577
(dp1578
g1565
(lp1579
F80.0
asg1567
(lp1580
F100.0
asg1569
(lp1581
F0.0
asg1571
(lp1582
I0
assS'workdir'
p1583
NssS'exp_key'
p1584
NsS'owner'
p1585
NsS'state'
p1586
I2
sS'version'
p1587
I0
sS'result'
p1588
(dp1589
S'status'
p1590
S'ok'
p1591
sS'loss'
p1592
F0.0081
ssg1562
I38
sS'spec'
p1593
Nsa(dp1594
S'refresh_time'
p1595
g10
(S'\x07\xe3\n\x19\x0c\x17/\x07\x1cP'
p1596
tp1597
Rp1598
sS'book_time'
p1599
g10
(S'\x07\xe3\n\x19\x0c\x06;\x0bm\xc8'
p1600
tp1601
Rp1602
sS'misc'
p1603
(dp1604
S'tid'
p1605
I39
sS'idxs'
p1606
(dp1607
S'units1'
p1608
(lp1609
I39
asS'units3'
p1610
(lp1611
I39
asS'units2'
p1612
(lp1613
I39
asS'batch_size'
p1614
(lp1615
I39
assS'cmd'
p1616
(S'domain_attachment'
p1617
S'FMinIter_Domain'
p1618
tp1619
sS'vals'
p1620
(dp1621
g1608
(lp1622
F20.0
asg1610
(lp1623
F40.0
asg1612
(lp1624
F20.0
asg1614
(lp1625
I0
assS'workdir'
p1626
NssS'state'
p1627
I2
sg1605
I39
sS'exp_key'
p1628
NsS'version'
p1629
I0
sS'result'
p1630
(dp1631
S'status'
p1632
S'ok'
p1633
sS'loss'
p1634
F0.0135
ssS'owner'
p1635
NsS'spec'
p1636
Nsa(dp1637
S'refresh_time'
p1638
g10
(S"\x07\xe3\n\x19\x0c)'\x06\xc2x"
p1639
tp1640
Rp1641
sS'book_time'
p1642
g10
(S'\x07\xe3\n\x19\x0c\x17/\x07v('
p1643
tp1644
Rp1645
sS'misc'
p1646
(dp1647
S'tid'
p1648
I40
sS'idxs'
p1649
(dp1650
S'units1'
p1651
(lp1652
I40
asS'units3'
p1653
(lp1654
I40
asS'units2'
p1655
(lp1656
I40
asS'batch_size'
p1657
(lp1658
I40
assS'cmd'
p1659
(S'domain_attachment'
p1660
S'FMinIter_Domain'
p1661
tp1662
sS'vals'
p1663
(dp1664
g1651
(lp1665
F20.0
asg1653
(lp1666
F100.0
asg1655
(lp1667
F20.0
asg1657
(lp1668
I0
assS'workdir'
p1669
NssS'exp_key'
p1670
NsS'owner'
p1671
NsS'state'
p1672
I2
sS'version'
p1673
I0
sS'result'
p1674
(dp1675
S'status'
p1676
S'ok'
p1677
sS'loss'
p1678
F0.0134
ssg1648
I40
sS'spec'
p1679
Nsa(dp1680
S'refresh_time'
p1681
g10
(S'\x07\xe3\n\x19\x0c:\x00\x07\x81\xe0'
p1682
tp1683
Rp1684
sS'book_time'
p1685
g10
(S"\x07\xe3\n\x19\x0c)'\x07\x1cP"
p1686
tp1687
Rp1688
sS'misc'
p1689
(dp1690
S'tid'
p1691
I41
sS'idxs'
p1692
(dp1693
S'units1'
p1694
(lp1695
I41
asS'units3'
p1696
(lp1697
I41
asS'units2'
p1698
(lp1699
I41
asS'batch_size'
p1700
(lp1701
I41
assS'cmd'
p1702
(S'domain_attachment'
p1703
S'FMinIter_Domain'
p1704
tp1705
sS'vals'
p1706
(dp1707
g1694
(lp1708
F80.0
asg1696
(lp1709
F60.0
asg1698
(lp1710
F60.0
asg1700
(lp1711
I0
assS'workdir'
p1712
NssS'state'
p1713
I2
sg1691
I41
sS'exp_key'
p1714
NsS'version'
p1715
I0
sS'result'
p1716
(dp1717
S'status'
p1718
S'ok'
p1719
sS'loss'
p1720
F0.0071
ssS'owner'
p1721
NsS'spec'
p1722
Nsa(dp1723
S'refresh_time'
p1724
g10
(S'\x07\xe3\n\x19\r\x0e9\x0bb\x10'
p1725
tp1726
Rp1727
sS'book_time'
p1728
g10
(S'\x07\xe3\n\x19\x0c:\x00\x07\xdb\xb8'
p1729
tp1730
Rp1731
sS'misc'
p1732
(dp1733
S'tid'
p1734
I42
sS'idxs'
p1735
(dp1736
S'units1'
p1737
(lp1738
I42
asS'units3'
p1739
(lp1740
I42
asS'units2'
p1741
(lp1742
I42
asS'batch_size'
p1743
(lp1744
I42
assS'cmd'
p1745
(S'domain_attachment'
p1746
S'FMinIter_Domain'
p1747
tp1748
sS'vals'
p1749
(dp1750
g1737
(lp1751
F20.0
asg1739
(lp1752
F20.0
asg1741
(lp1753
F60.0
asg1743
(lp1754
I0
assS'workdir'
p1755
NssS'exp_key'
p1756
NsS'owner'
p1757
NsS'state'
p1758
I2
sS'version'
p1759
I0
sS'result'
p1760
(dp1761
S'status'
p1762
S'ok'
p1763
sS'loss'
p1764
F0.0139
ssg1734
I42
sS'spec'
p1765
Nsa(dp1766
S'refresh_time'
p1767
g10
(S'\x07\xe3\n\x19\r!:\t\x95 '
p1768
tp1769
Rp1770
sS'book_time'
p1771
g10
(S'\x07\xe3\n\x19\r\x0e9\x0b\xbb\xe8'
p1772
tp1773
Rp1774
sS'misc'
p1775
(dp1776
S'tid'
p1777
I43
sS'idxs'
p1778
(dp1779
S'units1'
p1780
(lp1781
I43
asS'units3'
p1782
(lp1783
I43
asS'units2'
p1784
(lp1785
I43
asS'batch_size'
p1786
(lp1787
I43
assS'cmd'
p1788
(S'domain_attachment'
p1789
S'FMinIter_Domain'
p1790
tp1791
sS'vals'
p1792
(dp1793
g1780
(lp1794
F60.0
asg1782
(lp1795
F80.0
asg1784
(lp1796
F80.0
asg1786
(lp1797
I0
assS'workdir'
p1798
NssS'state'
p1799
I2
sg1777
I43
sS'exp_key'
p1800
NsS'version'
p1801
I0
sS'result'
p1802
(dp1803
S'status'
p1804
S'ok'
p1805
sS'loss'
p1806
F0.0077
ssS'owner'
p1807
NsS'spec'
p1808
Nsa(dp1809
S'refresh_time'
p1810
g10
(S'\x07\xe3\n\x19\r5\x13\x05f\xd0'
p1811
tp1812
Rp1813
sS'book_time'
p1814
g10
(S'\x07\xe3\n\x19\r!:\t\xfe\x98'
p1815
tp1816
Rp1817
sS'misc'
p1818
(dp1819
S'tid'
p1820
I44
sS'idxs'
p1821
(dp1822
S'units1'
p1823
(lp1824
I44
asS'units3'
p1825
(lp1826
I44
asS'units2'
p1827
(lp1828
I44
asS'batch_size'
p1829
(lp1830
I44
assS'cmd'
p1831
(S'domain_attachment'
p1832
S'FMinIter_Domain'
p1833
tp1834
sS'vals'
p1835
(dp1836
g1823
(lp1837
F40.0
asg1825
(lp1838
F0.0
asg1827
(lp1839
F40.0
asg1829
(lp1840
I0
assS'workdir'
p1841
NssS'exp_key'
p1842
NsS'owner'
p1843
NsS'state'
p1844
I2
sS'version'
p1845
I0
sS'result'
p1846
(dp1847
S'status'
p1848
S'ok'
p1849
sS'loss'
p1850
F0.0082
ssg1820
I44
sS'spec'
p1851
Nsa(dp1852
S'refresh_time'
p1853
g10
(S'\x07\xe3\n\x19\x0e\r(\x06\xe1\xb8'
p1854
tp1855
Rp1856
sS'book_time'
p1857
g10
(S'\x07\xe3\n\x19\r5\x13\x05\xcc`'
p1858
tp1859
Rp1860
sS'misc'
p1861
(dp1862
S'tid'
p1863
I45
sS'idxs'
p1864
(dp1865
S'units1'
p1866
(lp1867
I45
asS'units3'
p1868
(lp1869
I45
asS'units2'
p1870
(lp1871
I45
asS'batch_size'
p1872
(lp1873
I45
assS'cmd'
p1874
(S'domain_attachment'
p1875
S'FMinIter_Domain'
p1876
tp1877
sS'vals'
p1878
(dp1879
g1866
(lp1880
F60.0
asg1868
(lp1881
F60.0
asg1870
(lp1882
F80.0
asg1872
(lp1883
I0
assS'workdir'
p1884
NssS'state'
p1885
I2
sg1863
I45
sS'exp_key'
p1886
NsS'version'
p1887
I0
sS'result'
p1888
(dp1889
S'status'
p1890
S'ok'
p1891
sS'loss'
p1892
F0.0077
ssS'owner'
p1893
NsS'spec'
p1894
Nsa(dp1895
S'refresh_time'
p1896
g10
(S'\x07\xe3\n\x19\x0e!"\x06l\x88'
p1897
tp1898
Rp1899
sS'book_time'
p1900
g10
(S'\x07\xe3\n\x19\x0e\r(\x07O\x18'
p1901
tp1902
Rp1903
sS'misc'
p1904
(dp1905
S'tid'
p1906
I46
sS'idxs'
p1907
(dp1908
S'units1'
p1909
(lp1910
I46
asS'units3'
p1911
(lp1912
I46
asS'units2'
p1913
(lp1914
I46
asS'batch_size'
p1915
(lp1916
I46
assS'cmd'
p1917
(S'domain_attachment'
p1918
S'FMinIter_Domain'
p1919
tp1920
sS'vals'
p1921
(dp1922
g1909
(lp1923
F20.0
asg1911
(lp1924
F60.0
asg1913
(lp1925
F0.0
asg1915
(lp1926
I0
assS'workdir'
p1927
NssS'exp_key'
p1928
NsS'owner'
p1929
NsS'state'
p1930
I2
sS'version'
p1931
I0
sS'result'
p1932
(dp1933
S'status'
p1934
S'ok'
p1935
sS'loss'
p1936
F0.0135
ssg1906
I46
sS'spec'
p1937
Nsa(dp1938
S'refresh_time'
p1939
g10
(S'\x07\xe3\n\x19\x0e6.\x02\x9f\xe0'
p1940
tp1941
Rp1942
sS'book_time'
p1943
g10
(S'\x07\xe3\n\x19\x0e!"\x06\xfd\x10'
p1944
tp1945
Rp1946
sS'misc'
p1947
(dp1948
S'tid'
p1949
I47
sS'idxs'
p1950
(dp1951
S'units1'
p1952
(lp1953
I47
asS'units3'
p1954
(lp1955
I47
asS'units2'
p1956
(lp1957
I47
asS'batch_size'
p1958
(lp1959
I47
assS'cmd'
p1960
(S'domain_attachment'
p1961
S'FMinIter_Domain'
p1962
tp1963
sS'vals'
p1964
(dp1965
g1952
(lp1966
F100.0
asg1954
(lp1967
F60.0
asg1956
(lp1968
F80.0
asg1958
(lp1969
I0
assS'workdir'
p1970
NssS'state'
p1971
I2
sg1949
I47
sS'exp_key'
p1972
NsS'version'
p1973
I0
sS'result'
p1974
(dp1975
S'status'
p1976
S'ok'
p1977
sS'loss'
p1978
F0.0071
ssS'owner'
p1979
NsS'spec'
p1980
Nsa(dp1981
S'refresh_time'
p1982
g10
(S'\x07\xe3\n\x19\x0f\x0c"\x03~\x88'
p1983
tp1984
Rp1985
sS'book_time'
p1986
g10
(S'\x07\xe3\n\x19\x0e6.\x03(\x98'
p1987
tp1988
Rp1989
sS'misc'
p1990
(dp1991
S'tid'
p1992
I48
sS'idxs'
p1993
(dp1994
S'units1'
p1995
(lp1996
I48
asS'units3'
p1997
(lp1998
I48
asS'units2'
p1999
(lp2000
I48
asS'batch_size'
p2001
(lp2002
I48
assS'cmd'
p2003
(S'domain_attachment'
p2004
S'FMinIter_Domain'
p2005
tp2006
sS'vals'
p2007
(dp2008
g1995
(lp2009
F80.0
asg1997
(lp2010
F100.0
asg1999
(lp2011
F20.0
asg2001
(lp2012
I0
assS'workdir'
p2013
NssS'exp_key'
p2014
NsS'owner'
p2015
NsS'state'
p2016
I2
sS'version'
p2017
I0
sS'result'
p2018
(dp2019
S'status'
p2020
S'ok'
p2021
sS'loss'
p2022
F0.0079
ssg1992
I48
sS'spec'
p2023
Nsa(dp2024
S'refresh_time'
p2025
g10
(S'\x07\xe3\n\x19\x0f\x1f5\x05\x0c\xf8'
p2026
tp2027
Rp2028
sS'book_time'
p2029
g10
(S'\x07\xe3\n\x19\x0f\x0c"\x03\xf3\xb8'
p2030
tp2031
Rp2032
sS'misc'
p2033
(dp2034
S'tid'
p2035
I49
sS'idxs'
p2036
(dp2037
S'units1'
p2038
(lp2039
I49
asS'units3'
p2040
(lp2041
I49
asS'units2'
p2042
(lp2043
I49
asS'batch_size'
p2044
(lp2045
I49
assS'cmd'
p2046
(S'domain_attachment'
p2047
S'FMinIter_Domain'
p2048
tp2049
sS'vals'
p2050
(dp2051
g2038
(lp2052
F100.0
asg2040
(lp2053
F40.0
asg2042
(lp2054
F80.0
asg2044
(lp2055
I0
assS'workdir'
p2056
NssS'state'
p2057
I2
sg2035
I49
sS'exp_key'
p2058
NsS'version'
p2059
I0
sS'result'
p2060
(dp2061
S'status'
p2062
S'ok'
p2063
sS'loss'
p2064
F0.0073
ssS'owner'
p2065
NsS'spec'
p2066
Nsa(dp2067
S'refresh_time'
p2068
g10
(S'\x07\xe3\n\x19\x0f02\x01O\xf0'
p2069
tp2070
Rp2071
sS'book_time'
p2072
g10
(S'\x07\xe3\n\x19\x0f\x1f5\x05zX'
p2073
tp2074
Rp2075
sS'misc'
p2076
(dp2077
S'tid'
p2078
I50
sS'idxs'
p2079
(dp2080
S'units1'
p2081
(lp2082
I50
asS'units3'
p2083
(lp2084
I50
asS'units2'
p2085
(lp2086
I50
asS'batch_size'
p2087
(lp2088
I50
assS'cmd'
p2089
(S'domain_attachment'
p2090
S'FMinIter_Domain'
p2091
tp2092
sS'vals'
p2093
(dp2094
g2081
(lp2095
F60.0
asg2083
(lp2096
F100.0
asg2085
(lp2097
F40.0
asg2087
(lp2098
I0
assS'workdir'
p2099
NssS'exp_key'
p2100
NsS'owner'
p2101
NsS'state'
p2102
I2
sS'version'
p2103
I0
sS'result'
p2104
(dp2105
S'status'
p2106
S'ok'
p2107
sS'loss'
p2108
F0.0073
ssg2078
I50
sS'spec'
p2109
Nsa(dp2110
S'refresh_time'
p2111
g10
(S'\x07\xe3\n\x19\x10\x07\x07\x06"P'
p2112
tp2113
Rp2114
sS'book_time'
p2115
g10
(S'\x07\xe3\n\x19\x0f02\x01\xbdP'
p2116
tp2117
Rp2118
sS'misc'
p2119
(dp2120
S'tid'
p2121
I51
sS'idxs'
p2122
(dp2123
S'units1'
p2124
(lp2125
I51
asS'units3'
p2126
(lp2127
I51
asS'units2'
p2128
(lp2129
I51
asS'batch_size'
p2130
(lp2131
I51
assS'cmd'
p2132
(S'domain_attachment'
p2133
S'FMinIter_Domain'
p2134
tp2135
sS'vals'
p2136
(dp2137
g2124
(lp2138
F40.0
asg2126
(lp2139
F80.0
asg2128
(lp2140
F100.0
asg2130
(lp2141
I0
assS'workdir'
p2142
NssS'state'
p2143
I2
sg2121
I51
sS'exp_key'
p2144
NsS'version'
p2145
I0
sS'result'
p2146
(dp2147
S'status'
p2148
S'ok'
p2149
sS'loss'
p2150
F0.0084
ssS'owner'
p2151
NsS'spec'
p2152
Nsa(dp2153
S'refresh_time'
p2154
g10
(S'\x07\xe3\n\x19\x10\x171\x01S\xd8'
p2155
tp2156
Rp2157
sS'book_time'
p2158
g10
(S'\x07\xe3\n\x19\x10\x07\x07\x06\x97\x80'
p2159
tp2160
Rp2161
sS'misc'
p2162
(dp2163
S'tid'
p2164
I52
sS'idxs'
p2165
(dp2166
S'units1'
p2167
(lp2168
I52
asS'units3'
p2169
(lp2170
I52
asS'units2'
p2171
(lp2172
I52
asS'batch_size'
p2173
(lp2174
I52
assS'cmd'
p2175
(S'domain_attachment'
p2176
S'FMinIter_Domain'
p2177
tp2178
sS'vals'
p2179
(dp2180
g2167
(lp2181
F0.0
asg2169
(lp2182
F0.0
asg2171
(lp2183
F40.0
asg2173
(lp2184
I0
assS'workdir'
p2185
NssS'exp_key'
p2186
NsS'owner'
p2187
NsS'state'
p2188
I2
sS'version'
p2189
I0
sS'result'
p2190
(dp2191
S'status'
p2192
S'ok'
p2193
sS'loss'
p2194
F0.0383
ssg2164
I52
sS'spec'
p2195
Nsa(dp2196
S'refresh_time'
p2197
g10
(S'\x07\xe3\n\x19\x10)\x18\x03c0'
p2198
tp2199
Rp2200
sS'book_time'
p2201
g10
(S'\x07\xe3\n\x19\x10\x171\x01\xcc\xf0'
p2202
tp2203
Rp2204
sS'misc'
p2205
(dp2206
S'tid'
p2207
I53
sS'idxs'
p2208
(dp2209
S'units1'
p2210
(lp2211
I53
asS'units3'
p2212
(lp2213
I53
asS'units2'
p2214
(lp2215
I53
asS'batch_size'
p2216
(lp2217
I53
assS'cmd'
p2218
(S'domain_attachment'
p2219
S'FMinIter_Domain'
p2220
tp2221
sS'vals'
p2222
(dp2223
g2210
(lp2224
F20.0
asg2212
(lp2225
F80.0
asg2214
(lp2226
F60.0
asg2216
(lp2227
I0
assS'workdir'
p2228
NssS'state'
p2229
I2
sg2207
I53
sS'exp_key'
p2230
NsS'version'
p2231
I0
sS'result'
p2232
(dp2233
S'status'
p2234
S'ok'
p2235
sS'loss'
p2236
F0.0138
ssS'owner'
p2237
NsS'spec'
p2238
Nsa(dp2239
S'refresh_time'
p2240
g10
(S'\x07\xe3\n\x19\x109*\x022\x80'
p2241
tp2242
Rp2243
sS'book_time'
p2244
g10
(S'\x07\xe3\n\x19\x10)\x18\x03\xe00'
p2245
tp2246
Rp2247
sS'misc'
p2248
(dp2249
S'tid'
p2250
I54
sS'idxs'
p2251
(dp2252
S'units1'
p2253
(lp2254
I54
asS'units3'
p2255
(lp2256
I54
asS'units2'
p2257
(lp2258
I54
asS'batch_size'
p2259
(lp2260
I54
assS'cmd'
p2261
(S'domain_attachment'
p2262
S'FMinIter_Domain'
p2263
tp2264
sS'vals'
p2265
(dp2266
g2253
(lp2267
F40.0
asg2255
(lp2268
F60.0
asg2257
(lp2269
F80.0
asg2259
(lp2270
I0
assS'workdir'
p2271
NssS'exp_key'
p2272
NsS'owner'
p2273
NsS'state'
p2274
I2
sS'version'
p2275
I0
sS'result'
p2276
(dp2277
S'status'
p2278
S'ok'
p2279
sS'loss'
p2280
F0.008
ssg2250
I54
sS'spec'
p2281
Nsa(dp2282
S'refresh_time'
p2283
g10
(S'\x07\xe3\n\x19\x11\r.\x04M\x90'
p2284
tp2285
Rp2286
sS'book_time'
p2287
g10
(S'\x07\xe3\n\x19\x109*\x02\xa3\xc8'
p2288
tp2289
Rp2290
sS'misc'
p2291
(dp2292
S'tid'
p2293
I55
sS'idxs'
p2294
(dp2295
S'units1'
p2296
(lp2297
I55
asS'units3'
p2298
(lp2299
I55
asS'units2'
p2300
(lp2301
I55
asS'batch_size'
p2302
(lp2303
I55
assS'cmd'
p2304
(S'domain_attachment'
p2305
S'FMinIter_Domain'
p2306
tp2307
sS'vals'
p2308
(dp2309
g2296
(lp2310
F20.0
asg2298
(lp2311
F100.0
asg2300
(lp2312
F0.0
asg2302
(lp2313
I0
assS'workdir'
p2314
NssS'state'
p2315
I2
sg2293
I55
sS'exp_key'
p2316
NsS'version'
p2317
I0
sS'result'
p2318
(dp2319
S'status'
p2320
S'ok'
p2321
sS'loss'
p2322
F0.0135
ssS'owner'
p2323
NsS'spec'
p2324
Nsa(dp2325
S'refresh_time'
p2326
g10
(S'\x07\xe3\n\x19\x11\x1d(\x03z\xa0'
p2327
tp2328
Rp2329
sS'book_time'
p2330
g10
(S'\x07\xe3\n\x19\x11\r.\x04\xca\x90'
p2331
tp2332
Rp2333
sS'misc'
p2334
(dp2335
S'tid'
p2336
I56
sS'idxs'
p2337
(dp2338
S'units1'
p2339
(lp2340
I56
asS'units3'
p2341
(lp2342
I56
asS'units2'
p2343
(lp2344
I56
asS'batch_size'
p2345
(lp2346
I56
assS'cmd'
p2347
(S'domain_attachment'
p2348
S'FMinIter_Domain'
p2349
tp2350
sS'vals'
p2351
(dp2352
g2339
(lp2353
F20.0
asg2341
(lp2354
F80.0
asg2343
(lp2355
F40.0
asg2345
(lp2356
I0
assS'workdir'
p2357
NssS'exp_key'
p2358
NsS'owner'
p2359
NsS'state'
p2360
I2
sS'version'
p2361
I0
sS'result'
p2362
(dp2363
S'status'
p2364
S'ok'
p2365
sS'loss'
p2366
F0.0138
ssg2336
I56
sS'spec'
p2367
Nsa(dp2368
S'refresh_time'
p2369
g10
(S'\x07\xe3\n\x19\x11.\x1b\x0e\x82\xd8'
p2370
tp2371
Rp2372
sS'book_time'
p2373
g10
(S'\x07\xe3\n\x19\x11\x1d(\x04\x0f\x10'
p2374
tp2375
Rp2376
sS'misc'
p2377
(dp2378
S'tid'
p2379
I57
sS'idxs'
p2380
(dp2381
S'units1'
p2382
(lp2383
I57
asS'units3'
p2384
(lp2385
I57
asS'units2'
p2386
(lp2387
I57
asS'batch_size'
p2388
(lp2389
I57
assS'cmd'
p2390
(S'domain_attachment'
p2391
S'FMinIter_Domain'
p2392
tp2393
sS'vals'
p2394
(dp2395
g2382
(lp2396
F80.0
asg2384
(lp2397
F100.0
asg2386
(lp2398
F60.0
asg2388
(lp2399
I0
assS'workdir'
p2400
NssS'state'
p2401
I2
sg2379
I57
sS'exp_key'
p2402
NsS'version'
p2403
I0
sS'result'
p2404
(dp2405
S'status'
p2406
S'ok'
p2407
sS'loss'
p2408
F0.0069
ssS'owner'
p2409
NsS'spec'
p2410
Nsa(dp2411
S'refresh_time'
p2412
g10
(S'\x07\xe3\n\x19\x12\x03\x11\x05vp'
p2413
tp2414
Rp2415
sS'book_time'
p2416
g10
(S'\x07\xe3\n\x19\x11.\x1b\x0f\x07\xa8'
p2417
tp2418
Rp2419
sS'misc'
p2420
(dp2421
S'tid'
p2422
I58
sS'idxs'
p2423
(dp2424
S'units1'
p2425
(lp2426
I58
asS'units3'
p2427
(lp2428
I58
asS'units2'
p2429
(lp2430
I58
asS'batch_size'
p2431
(lp2432
I58
assS'cmd'
p2433
(S'domain_attachment'
p2434
S'FMinIter_Domain'
p2435
tp2436
sS'vals'
p2437
(dp2438
g2425
(lp2439
F60.0
asg2427
(lp2440
F40.0
asg2429
(lp2441
F60.0
asg2431
(lp2442
I0
assS'workdir'
p2443
NssS'exp_key'
p2444
NsS'owner'
p2445
NsS'state'
p2446
I2
sS'version'
p2447
I0
sS'result'
p2448
(dp2449
S'status'
p2450
S'ok'
p2451
sS'loss'
p2452
F0.0079
ssg2422
I58
sS'spec'
p2453
Nsa(dp2454
S'refresh_time'
p2455
g10
(S'\x07\xe3\n\x19\x12\x16\x1d\x00N '
p2456
tp2457
Rp2458
sS'book_time'
p2459
g10
(S'\x07\xe3\n\x19\x12\x03\x11\x05\xfb@'
p2460
tp2461
Rp2462
sS'misc'
p2463
(dp2464
S'tid'
p2465
I59
sS'idxs'
p2466
(dp2467
S'units1'
p2468
(lp2469
I59
asS'units3'
p2470
(lp2471
I59
asS'units2'
p2472
(lp2473
I59
asS'batch_size'
p2474
(lp2475
I59
assS'cmd'
p2476
(S'domain_attachment'
p2477
S'FMinIter_Domain'
p2478
tp2479
sS'vals'
p2480
(dp2481
g2468
(lp2482
F80.0
asg2470
(lp2483
F80.0
asg2472
(lp2484
F80.0
asg2474
(lp2485
I0
assS'workdir'
p2486
NssS'state'
p2487
I2
sg2465
I59
sS'exp_key'
p2488
NsS'version'
p2489
I0
sS'result'
p2490
(dp2491
S'status'
p2492
S'ok'
p2493
sS'loss'
p2494
F0.007
ssS'owner'
p2495
NsS'spec'
p2496
Nsa(dp2497
S'refresh_time'
p2498
g10
(S'\x07\xe3\n\x19\x12)5\x05zX'
p2499
tp2500
Rp2501
sS'book_time'
p2502
g10
(S'\x07\xe3\n\x19\x12\x16\x1d\x00\xc3P'
p2503
tp2504
Rp2505
sS'misc'
p2506
(dp2507
S'tid'
p2508
I60
sS'idxs'
p2509
(dp2510
S'units1'
p2511
(lp2512
I60
asS'units3'
p2513
(lp2514
I60
asS'units2'
p2515
(lp2516
I60
asS'batch_size'
p2517
(lp2518
I60
assS'cmd'
p2519
(S'domain_attachment'
p2520
S'FMinIter_Domain'
p2521
tp2522
sS'vals'
p2523
(dp2524
g2511
(lp2525
F60.0
asg2513
(lp2526
F80.0
asg2515
(lp2527
F20.0
asg2517
(lp2528
I0
assS'workdir'
p2529
NssS'exp_key'
p2530
NsS'owner'
p2531
NsS'state'
p2532
I2
sS'version'
p2533
I0
sS'result'
p2534
(dp2535
S'status'
p2536
S'ok'
p2537
sS'loss'
p2538
F0.0077
ssg2508
I60
sS'spec'
p2539
Nsa(dp2540
S'refresh_time'
p2541
g10
(S'\x07\xe3\n\x19\x12:\x13\x00\x9c@'
p2542
tp2543
Rp2544
sS'book_time'
p2545
g10
(S'\x07\xe3\n\x19\x12)5\x05\xef\x88'
p2546
tp2547
Rp2548
sS'misc'
p2549
(dp2550
S'tid'
p2551
I61
sS'idxs'
p2552
(dp2553
S'units1'
p2554
(lp2555
I61
asS'units3'
p2556
(lp2557
I61
asS'units2'
p2558
(lp2559
I61
asS'batch_size'
p2560
(lp2561
I61
assS'cmd'
p2562
(S'domain_attachment'
p2563
S'FMinIter_Domain'
p2564
tp2565
sS'vals'
p2566
(dp2567
g2554
(lp2568
F20.0
asg2556
(lp2569
F20.0
asg2558
(lp2570
F20.0
asg2560
(lp2571
I0
assS'workdir'
p2572
NssS'state'
p2573
I2
sg2551
I61
sS'exp_key'
p2574
NsS'version'
p2575
I0
sS'result'
p2576
(dp2577
S'status'
p2578
S'ok'
p2579
sS'loss'
p2580
F0.0135
ssS'owner'
p2581
NsS'spec'
p2582
Nsa(dp2583
S'refresh_time'
p2584
g10
(S'\x07\xe3\n\x19\x13\x0f\x1e\x06\xe9\x88'
p2585
tp2586
Rp2587
sS'book_time'
p2588
g10
(S'\x07\xe3\n\x19\x12:\x13\x01\x1d('
p2589
tp2590
Rp2591
sS'misc'
p2592
(dp2593
S'tid'
p2594
I62
sS'idxs'
p2595
(dp2596
S'units1'
p2597
(lp2598
I62
asS'units3'
p2599
(lp2600
I62
asS'units2'
p2601
(lp2602
I62
asS'batch_size'
p2603
(lp2604
I62
assS'cmd'
p2605
(S'domain_attachment'
p2606
S'FMinIter_Domain'
p2607
tp2608
sS'vals'
p2609
(dp2610
g2597
(lp2611
F80.0
asg2599
(lp2612
F40.0
asg2601
(lp2613
F80.0
asg2603
(lp2614
I0
assS'workdir'
p2615
NssS'exp_key'
p2616
NsS'owner'
p2617
NsS'state'
p2618
I2
sS'version'
p2619
I0
sS'result'
p2620
(dp2621
S'status'
p2622
S'ok'
p2623
sS'loss'
p2624
F0.0073
ssg2594
I62
sS'spec'
p2625
Nsa(dp2626
S'refresh_time'
p2627
g10
(S'\x07\xe3\n\x19\x13"!\x08"\x08'
p2628
tp2629
Rp2630
sS'book_time'
p2631
g10
(S'\x07\xe3\n\x19\x13\x0f\x1e\x07nX'
p2632
tp2633
Rp2634
sS'misc'
p2635
(dp2636
S'tid'
p2637
I63
sS'idxs'
p2638
(dp2639
S'units1'
p2640
(lp2641
I63
asS'units3'
p2642
(lp2643
I63
asS'units2'
p2644
(lp2645
I63
asS'batch_size'
p2646
(lp2647
I63
assS'cmd'
p2648
(S'domain_attachment'
p2649
S'FMinIter_Domain'
p2650
tp2651
sS'vals'
p2652
(dp2653
g2640
(lp2654
F60.0
asg2642
(lp2655
F80.0
asg2644
(lp2656
F40.0
asg2646
(lp2657
I0
assS'workdir'
p2658
NssS'state'
p2659
I2
sg2637
I63
sS'exp_key'
p2660
NsS'version'
p2661
I0
sS'result'
p2662
(dp2663
S'status'
p2664
S'ok'
p2665
sS'loss'
p2666
F0.0073
ssS'owner'
p2667
NsS'spec'
p2668
Nsa(dp2669
S'refresh_time'
p2670
g10
(S'\x07\xe3\n\x19\x135/\x02B '
p2671
tp2672
Rp2673
sS'book_time'
p2674
g10
(S'\x07\xe3\n\x19\x13"!\x08\xb6x'
p2675
tp2676
Rp2677
sS'misc'
p2678
(dp2679
S'tid'
p2680
I64
sS'idxs'
p2681
(dp2682
S'units1'
p2683
(lp2684
I64
asS'units3'
p2685
(lp2686
I64
asS'units2'
p2687
(lp2688
I64
asS'batch_size'
p2689
(lp2690
I64
assS'cmd'
p2691
(S'domain_attachment'
p2692
S'FMinIter_Domain'
p2693
tp2694
sS'vals'
p2695
(dp2696
g2683
(lp2697
F100.0
asg2685
(lp2698
F40.0
asg2687
(lp2699
F20.0
asg2689
(lp2700
I0
assS'workdir'
p2701
NssS'exp_key'
p2702
NsS'owner'
p2703
NsS'state'
p2704
I2
sS'version'
p2705
I0
sS'result'
p2706
(dp2707
S'status'
p2708
S'ok'
p2709
sS'loss'
p2710
F0.0075
ssg2680
I64
sS'spec'
p2711
Nsa(dp2712
S'refresh_time'
p2713
g10
(S'\x07\xe3\n\x19\x14\x0b7\x01\xb5\x80'
p2714
tp2715
Rp2716
sS'book_time'
p2717
g10
(S'\x07\xe3\n\x19\x135/\x02\xd6\x90'
p2718
tp2719
Rp2720
sS'misc'
p2721
(dp2722
S'tid'
p2723
I65
sS'idxs'
p2724
(dp2725
S'units1'
p2726
(lp2727
I65
asS'units3'
p2728
(lp2729
I65
asS'units2'
p2730
(lp2731
I65
asS'batch_size'
p2732
(lp2733
I65
assS'cmd'
p2734
(S'domain_attachment'
p2735
S'FMinIter_Domain'
p2736
tp2737
sS'vals'
p2738
(dp2739
g2726
(lp2740
F20.0
asg2728
(lp2741
F60.0
asg2730
(lp2742
F100.0
asg2732
(lp2743
I0
assS'workdir'
p2744
NssS'state'
p2745
I2
sg2723
I65
sS'exp_key'
p2746
NsS'version'
p2747
I0
sS'result'
p2748
(dp2749
S'status'
p2750
S'ok'
p2751
sS'loss'
p2752
F0.0132
ssS'owner'
p2753
NsS'spec'
p2754
Nsa(dp2755
S'refresh_time'
p2756
g10
(S'\x07\xe3\n\x19\x14\x1b\x16\x08\xfc\xc8'
p2757
tp2758
Rp2759
sS'book_time'
p2760
g10
(S'\x07\xe3\n\x19\x14\x0b7\x02M\xd8'
p2761
tp2762
Rp2763
sS'misc'
p2764
(dp2765
S'tid'
p2766
I66
sS'idxs'
p2767
(dp2768
S'units1'
p2769
(lp2770
I66
asS'units3'
p2771
(lp2772
I66
asS'units2'
p2773
(lp2774
I66
asS'batch_size'
p2775
(lp2776
I66
assS'cmd'
p2777
(S'domain_attachment'
p2778
S'FMinIter_Domain'
p2779
tp2780
sS'vals'
p2781
(dp2782
g2769
(lp2783
F60.0
asg2771
(lp2784
F80.0
asg2773
(lp2785
F0.0
asg2775
(lp2786
I0
assS'workdir'
p2787
NssS'exp_key'
p2788
NsS'owner'
p2789
NsS'state'
p2790
I2
sS'version'
p2791
I0
sS'result'
p2792
(dp2793
S'status'
p2794
S'ok'
p2795
sS'loss'
p2796
F0.0078
ssg2766
I66
sS'spec'
p2797
Nsa(dp2798
S'refresh_time'
p2799
g10
(S'\x07\xe3\n\x19\x14*7\x07\xfe\xe0'
p2800
tp2801
Rp2802
sS'book_time'
p2803
g10
(S'\x07\xe3\n\x19\x14\x1b\x16\t\x8dP'
p2804
tp2805
Rp2806
sS'misc'
p2807
(dp2808
S'tid'
p2809
I67
sS'idxs'
p2810
(dp2811
S'units1'
p2812
(lp2813
I67
asS'units3'
p2814
(lp2815
I67
asS'units2'
p2816
(lp2817
I67
asS'batch_size'
p2818
(lp2819
I67
assS'cmd'
p2820
(S'domain_attachment'
p2821
S'FMinIter_Domain'
p2822
tp2823
sS'vals'
p2824
(dp2825
g2812
(lp2826
F40.0
asg2814
(lp2827
F60.0
asg2816
(lp2828
F40.0
asg2818
(lp2829
I0
assS'workdir'
p2830
NssS'state'
p2831
I2
sg2809
I67
sS'exp_key'
p2832
NsS'version'
p2833
I0
sS'result'
p2834
(dp2835
S'status'
p2836
S'ok'
p2837
sS'loss'
p2838
F0.0082
ssS'owner'
p2839
NsS'spec'
p2840
Nsa(dp2841
S'refresh_time'
p2842
g10
(S'\x07\xe3\n\x19\x15\x03\x18\x03\x05p'
p2843
tp2844
Rp2845
sS'book_time'
p2846
g10
(S'\x07\xe3\n\x19\x14*7\x08\x83\xb0'
p2847
tp2848
Rp2849
sS'misc'
p2850
(dp2851
S'tid'
p2852
I68
sS'idxs'
p2853
(dp2854
S'units1'
p2855
(lp2856
I68
asS'units3'
p2857
(lp2858
I68
asS'units2'
p2859
(lp2860
I68
asS'batch_size'
p2861
(lp2862
I68
assS'cmd'
p2863
(S'domain_attachment'
p2864
S'FMinIter_Domain'
p2865
tp2866
sS'vals'
p2867
(dp2868
g2855
(lp2869
F100.0
asg2857
(lp2870
F100.0
asg2859
(lp2871
F100.0
asg2861
(lp2872
I0
assS'workdir'
p2873
NssS'exp_key'
p2874
NsS'owner'
p2875
NsS'state'
p2876
I2
sS'version'
p2877
I0
sS'result'
p2878
(dp2879
S'status'
p2880
S'ok'
p2881
sS'loss'
p2882
F0.0074
ssg2852
I68
sS'spec'
p2883
Nsa(dp2884
S'refresh_time'
p2885
g10
(S'\x07\xe3\n\x19\x15\x13\r\x0e\x19`'
p2886
tp2887
Rp2888
sS'book_time'
p2889
g10
(S'\x07\xe3\n\x19\x15\x03\x18\x03\x8e('
p2890
tp2891
Rp2892
sS'misc'
p2893
(dp2894
S'tid'
p2895
I69
sS'idxs'
p2896
(dp2897
S'units1'
p2898
(lp2899
I69
asS'units3'
p2900
(lp2901
I69
asS'units2'
p2902
(lp2903
I69
asS'batch_size'
p2904
(lp2905
I69
assS'cmd'
p2906
(S'domain_attachment'
p2907
S'FMinIter_Domain'
p2908
tp2909
sS'vals'
p2910
(dp2911
g2898
(lp2912
F60.0
asg2900
(lp2913
F80.0
asg2902
(lp2914
F60.0
asg2904
(lp2915
I0
assS'workdir'
p2916
NssS'state'
p2917
I2
sg2895
I69
sS'exp_key'
p2918
NsS'version'
p2919
I0
sS'result'
p2920
(dp2921
S'status'
p2922
S'ok'
p2923
sS'loss'
p2924
F0.0078
ssS'owner'
p2925
NsS'spec'
p2926
Nsa(dp2927
S'refresh_time'
p2928
g10
(S'\x07\xe3\n\x19\x15"!\x00\xd2\xf0'
p2929
tp2930
Rp2931
sS'book_time'
p2932
g10
(S'\x07\xe3\n\x19\x15\x13\r\x0e\xb9\x88'
p2933
tp2934
Rp2935
sS'misc'
p2936
(dp2937
S'tid'
p2938
I70
sS'idxs'
p2939
(dp2940
S'units1'
p2941
(lp2942
I70
asS'units3'
p2943
(lp2944
I70
asS'units2'
p2945
(lp2946
I70
asS'batch_size'
p2947
(lp2948
I70
assS'cmd'
p2949
(S'domain_attachment'
p2950
S'FMinIter_Domain'
p2951
tp2952
sS'vals'
p2953
(dp2954
g2941
(lp2955
F20.0
asg2943
(lp2956
F60.0
asg2945
(lp2957
F40.0
asg2947
(lp2958
I0
assS'workdir'
p2959
NssS'exp_key'
p2960
NsS'owner'
p2961
NsS'state'
p2962
I2
sS'version'
p2963
I0
sS'result'
p2964
(dp2965
S'status'
p2966
S'ok'
p2967
sS'loss'
p2968
F0.0138
ssg2938
I70
sS'spec'
p2969
Nsa(dp2970
S'refresh_time'
p2971
g10
(S'\x07\xe3\n\x19\x152+\x0c\xae\x18'
p2972
tp2973
Rp2974
sS'book_time'
p2975
g10
(S'\x07\xe3\n\x19\x15"!\x01z\xe8'
p2976
tp2977
Rp2978
sS'misc'
p2979
(dp2980
S'tid'
p2981
I71
sS'idxs'
p2982
(dp2983
S'units1'
p2984
(lp2985
I71
asS'units3'
p2986
(lp2987
I71
asS'units2'
p2988
(lp2989
I71
asS'batch_size'
p2990
(lp2991
I71
assS'cmd'
p2992
(S'domain_attachment'
p2993
S'FMinIter_Domain'
p2994
tp2995
sS'vals'
p2996
(dp2997
g2984
(lp2998
F100.0
asg2986
(lp2999
F20.0
asg2988
(lp3000
F20.0
asg2990
(lp3001
I0
assS'workdir'
p3002
NssS'state'
p3003
I2
sg2981
I71
sS'exp_key'
p3004
NsS'version'
p3005
I0
sS'result'
p3006
(dp3007
S'status'
p3008
S'ok'
p3009
sS'loss'
p3010
F0.0074
ssS'owner'
p3011
NsS'spec'
p3012
Nsa(dp3013
S'refresh_time'
p3014
g10
(S'\x07\xe3\n\x19\x16\x06\x0c\x08p('
p3015
tp3016
Rp3017
sS'book_time'
p3018
g10
(S'\x07\xe3\n\x19\x152+\r2\xe8'
p3019
tp3020
Rp3021
sS'misc'
p3022
(dp3023
S'tid'
p3024
I72
sS'idxs'
p3025
(dp3026
S'units1'
p3027
(lp3028
I72
asS'units3'
p3029
(lp3030
I72
asS'units2'
p3031
(lp3032
I72
asS'batch_size'
p3033
(lp3034
I72
assS'cmd'
p3035
(S'domain_attachment'
p3036
S'FMinIter_Domain'
p3037
tp3038
sS'vals'
p3039
(dp3040
g3027
(lp3041
F40.0
asg3029
(lp3042
F20.0
asg3031
(lp3043
F80.0
asg3033
(lp3044
I0
assS'workdir'
p3045
NssS'exp_key'
p3046
NsS'owner'
p3047
NsS'state'
p3048
I2
sS'version'
p3049
I0
sS'result'
p3050
(dp3051
S'status'
p3052
S'ok'
p3053
sS'loss'
p3054
F0.0081
ssg3024
I72
sS'spec'
p3055
Nsa(dp3056
S'refresh_time'
p3057
g10
(S'\x07\xe3\n\x19\x16\x15\x11\x06\xd9\xe8'
p3058
tp3059
Rp3060
sS'book_time'
p3061
g10
(S'\x07\xe3\n\x19\x16\x06\x0c\x08\xfc\xc8'
p3062
tp3063
Rp3064
sS'misc'
p3065
(dp3066
S'tid'
p3067
I73
sS'idxs'
p3068
(dp3069
S'units1'
p3070
(lp3071
I73
asS'units3'
p3072
(lp3073
I73
asS'units2'
p3074
(lp3075
I73
asS'batch_size'
p3076
(lp3077
I73
assS'cmd'
p3078
(S'domain_attachment'
p3079
S'FMinIter_Domain'
p3080
tp3081
sS'vals'
p3082
(dp3083
g3070
(lp3084
F60.0
asg3072
(lp3085
F20.0
asg3074
(lp3086
F20.0
asg3076
(lp3087
I0
assS'workdir'
p3088
NssS'state'
p3089
I2
sg3067
I73
sS'exp_key'
p3090
NsS'version'
p3091
I0
sS'result'
p3092
(dp3093
S'status'
p3094
S'ok'
p3095
sS'loss'
p3096
F0.0077
ssS'owner'
p3097
NsS'spec'
p3098
Nsa(dp3099
S'refresh_time'
p3100
g10
(S'\x07\xe3\n\x19\x16&\x1d\x06x@'
p3101
tp3102
Rp3103
sS'book_time'
p3104
g10
(S'\x07\xe3\n\x19\x16\x15\x11\x07f\x88'
p3105
tp3106
Rp3107
sS'misc'
p3108
(dp3109
S'tid'
p3110
I74
sS'idxs'
p3111
(dp3112
S'units1'
p3113
(lp3114
I74
asS'units3'
p3115
(lp3116
I74
asS'units2'
p3117
(lp3118
I74
asS'batch_size'
p3119
(lp3120
I74
assS'cmd'
p3121
(S'domain_attachment'
p3122
S'FMinIter_Domain'
p3123
tp3124
sS'vals'
p3125
(dp3126
g3113
(lp3127
F100.0
asg3115
(lp3128
F80.0
asg3117
(lp3129
F40.0
asg3119
(lp3130
I0
assS'workdir'
p3131
NssS'exp_key'
p3132
NsS'owner'
p3133
NsS'state'
p3134
I2
sS'version'
p3135
I0
sS'result'
p3136
(dp3137
S'status'
p3138
S'ok'
p3139
sS'loss'
p3140
F0.0075
ssg3110
I74
sS'spec'
p3141
Nsa(dp3142
S'refresh_time'
p3143
g10
(S'\x07\xe3\n\x19\x166"\n\nP'
p3144
tp3145
Rp3146
sS'book_time'
p3147
g10
(S'\x07\xe3\n\x19\x16&\x1d\x07\x04\xe0'
p3148
tp3149
Rp3150
sS'misc'
p3151
(dp3152
S'tid'
p3153
I75
sS'idxs'
p3154
(dp3155
S'units1'
p3156
(lp3157
I75
asS'units3'
p3158
(lp3159
I75
asS'units2'
p3160
(lp3161
I75
asS'batch_size'
p3162
(lp3163
I75
assS'cmd'
p3164
(S'domain_attachment'
p3165
S'FMinIter_Domain'
p3166
tp3167
sS'vals'
p3168
(dp3169
g3156
(lp3170
F80.0
asg3158
(lp3171
F80.0
asg3160
(lp3172
F40.0
asg3162
(lp3173
I0
assS'workdir'
p3174
NssS'state'
p3175
I2
sg3153
I75
sS'exp_key'
p3176
NsS'version'
p3177
I0
sS'result'
p3178
(dp3179
S'status'
p3180
S'ok'
p3181
sS'loss'
p3182
F0.0075
ssS'owner'
p3183
NsS'spec'
p3184
Nsa(dp3185
S'refresh_time'
p3186
g10
(S'\x07\xe3\n\x19\x17\x081\x03\x92\x10'
p3187
tp3188
Rp3189
sS'book_time'
p3190
g10
(S'\x07\xe3\n\x19\x166"\n\x96\xf0'
p3191
tp3192
Rp3193
sS'misc'
p3194
(dp3195
S'tid'
p3196
I76
sS'idxs'
p3197
(dp3198
S'units1'
p3199
(lp3200
I76
asS'units3'
p3201
(lp3202
I76
asS'units2'
p3203
(lp3204
I76
asS'batch_size'
p3205
(lp3206
I76
assS'cmd'
p3207
(S'domain_attachment'
p3208
S'FMinIter_Domain'
p3209
tp3210
sS'vals'
p3211
(dp3212
g3199
(lp3213
F0.0
asg3201
(lp3214
F100.0
asg3203
(lp3215
F40.0
asg3205
(lp3216
I0
assS'workdir'
p3217
NssS'exp_key'
p3218
NsS'owner'
p3219
NsS'state'
p3220
I2
sS'version'
p3221
I0
sS'result'
p3222
(dp3223
S'status'
p3224
S'ok'
p3225
sS'loss'
p3226
F0.0383
ssg3196
I76
sS'spec'
p3227
Nsa(dp3228
S'refresh_time'
p3229
g10
(S'\x07\xe3\n\x19\x17\x17"\x00\xe2\x90'
p3230
tp3231
Rp3232
sS'book_time'
p3233
g10
(S'\x07\xe3\n\x19\x17\x081\x04*h'
p3234
tp3235
Rp3236
sS'misc'
p3237
(dp3238
S'tid'
p3239
I77
sS'idxs'
p3240
(dp3241
S'units1'
p3242
(lp3243
I77
asS'units3'
p3244
(lp3245
I77
asS'units2'
p3246
(lp3247
I77
asS'batch_size'
p3248
(lp3249
I77
assS'cmd'
p3250
(S'domain_attachment'
p3251
S'FMinIter_Domain'
p3252
tp3253
sS'vals'
p3254
(dp3255
g3242
(lp3256
F0.0
asg3244
(lp3257
F60.0
asg3246
(lp3258
F80.0
asg3248
(lp3259
I0
assS'workdir'
p3260
NssS'state'
p3261
I2
sg3239
I77
sS'exp_key'
p3262
NsS'version'
p3263
I0
sS'result'
p3264
(dp3265
S'status'
p3266
S'ok'
p3267
sS'loss'
p3268
F0.0383
ssS'owner'
p3269
NsS'spec'
p3270
Nsa(dp3271
S'refresh_time'
p3272
g10
(S'\x07\xe3\n\x19\x17(\x03\x0e4\xb8'
p3273
tp3274
Rp3275
sS'book_time'
p3276
g10
(S'\x07\xe3\n\x19\x17\x17"\x01z\xe8'
p3277
tp3278
Rp3279
sS'misc'
p3280
(dp3281
S'tid'
p3282
I78
sS'idxs'
p3283
(dp3284
S'units1'
p3285
(lp3286
I78
asS'units3'
p3287
(lp3288
I78
asS'units2'
p3289
(lp3290
I78
asS'batch_size'
p3291
(lp3292
I78
assS'cmd'
p3293
(S'domain_attachment'
p3294
S'FMinIter_Domain'
p3295
tp3296
sS'vals'
p3297
(dp3298
g3285
(lp3299
F20.0
asg3287
(lp3300
F0.0
asg3289
(lp3301
F100.0
asg3291
(lp3302
I0
assS'workdir'
p3303
NssS'exp_key'
p3304
NsS'owner'
p3305
NsS'state'
p3306
I2
sS'version'
p3307
I0
sS'result'
p3308
(dp3309
S'status'
p3310
S'ok'
p3311
sS'loss'
p3312
F0.0133
ssg3282
I78
sS'spec'
p3313
Nsa(dp3314
S'refresh_time'
p3315
g10
(S'\x07\xe3\n\x19\x1785\x03O\xa8'
p3316
tp3317
Rp3318
sS'book_time'
p3319
g10
(S'\x07\xe3\n\x19\x17(\x03\x0e\xc9('
p3320
tp3321
Rp3322
sS'misc'
p3323
(dp3324
S'tid'
p3325
I79
sS'idxs'
p3326
(dp3327
S'units1'
p3328
(lp3329
I79
asS'units3'
p3330
(lp3331
I79
asS'units2'
p3332
(lp3333
I79
asS'batch_size'
p3334
(lp3335
I79
assS'cmd'
p3336
(S'domain_attachment'
p3337
S'FMinIter_Domain'
p3338
tp3339
sS'vals'
p3340
(dp3341
g3328
(lp3342
F60.0
asg3330
(lp3343
F20.0
asg3332
(lp3344
F80.0
asg3334
(lp3345
I0
assS'workdir'
p3346
NssS'state'
p3347
I2
sg3325
I79
sS'exp_key'
p3348
NsS'version'
p3349
I0
sS'result'
p3350
(dp3351
S'status'
p3352
S'ok'
p3353
sS'loss'
p3354
F0.0077
ssS'owner'
p3355
NsS'spec'
p3356
Nsa(dp3357
S'refresh_time'
p3358
g10
(S'\x07\xe3\n\x1a\x00\x0f*\t\xdbp'
p3359
tp3360
Rp3361
sS'book_time'
p3362
g10
(S'\x07\xe3\n\x19\x1785\x03\xeb\xe8'
p3363
tp3364
Rp3365
sS'misc'
p3366
(dp3367
S'tid'
p3368
I80
sS'idxs'
p3369
(dp3370
S'units1'
p3371
(lp3372
I80
asS'units3'
p3373
(lp3374
I80
asS'units2'
p3375
(lp3376
I80
asS'batch_size'
p3377
(lp3378
I80
assS'cmd'
p3379
(S'domain_attachment'
p3380
S'FMinIter_Domain'
p3381
tp3382
sS'vals'
p3383
(dp3384
g3371
(lp3385
F100.0
asg3373
(lp3386
F60.0
asg3375
(lp3387
F100.0
asg3377
(lp3388
I0
assS'workdir'
p3389
NssS'exp_key'
p3390
NsS'owner'
p3391
NsS'state'
p3392
I2
sS'version'
p3393
I0
sS'result'
p3394
(dp3395
S'status'
p3396
S'ok'
p3397
sS'loss'
p3398
F0.0073
ssg3368
I80
sS'spec'
p3399
Nsa(dp3400
S'refresh_time'
p3401
g10
(S'\x07\xe3\n\x1a\x00\x1d\x0e\x0b\x858'
p3402
tp3403
Rp3404
sS'book_time'
p3405
g10
(S'\x07\xe3\n\x1a\x00\x0f*\no\xe0'
p3406
tp3407
Rp3408
sS'misc'
p3409
(dp3410
S'tid'
p3411
I81
sS'idxs'
p3412
(dp3413
S'units1'
p3414
(lp3415
I81
asS'units3'
p3416
(lp3417
I81
asS'units2'
p3418
(lp3419
I81
asS'batch_size'
p3420
(lp3421
I81
assS'cmd'
p3422
(S'domain_attachment'
p3423
S'FMinIter_Domain'
p3424
tp3425
sS'vals'
p3426
(dp3427
g3414
(lp3428
F40.0
asg3416
(lp3429
F0.0
asg3418
(lp3430
F60.0
asg3420
(lp3431
I0
assS'workdir'
p3432
NssS'state'
p3433
I2
sg3411
I81
sS'exp_key'
p3434
NsS'version'
p3435
I0
sS'result'
p3436
(dp3437
S'status'
p3438
S'ok'
p3439
sS'loss'
p3440
F0.0079
ssS'owner'
p3441
NsS'spec'
p3442
Nsa(dp3443
S'refresh_time'
p3444
g10
(S'\x07\xe3\n\x1a\x00*4\t\x08\x80'
p3445
tp3446
Rp3447
sS'book_time'
p3448
g10
(S'\x07\xe3\n\x1a\x00\x1d\x0e\x0c\x1d\x90'
p3449
tp3450
Rp3451
sS'misc'
p3452
(dp3453
S'tid'
p3454
I82
sS'idxs'
p3455
(dp3456
S'units1'
p3457
(lp3458
I82
asS'units3'
p3459
(lp3460
I82
asS'units2'
p3461
(lp3462
I82
asS'batch_size'
p3463
(lp3464
I82
assS'cmd'
p3465
(S'domain_attachment'
p3466
S'FMinIter_Domain'
p3467
tp3468
sS'vals'
p3469
(dp3470
g3457
(lp3471
F40.0
asg3459
(lp3472
F60.0
asg3461
(lp3473
F100.0
asg3463
(lp3474
I0
assS'workdir'
p3475
NssS'exp_key'
p3476
NsS'owner'
p3477
NsS'state'
p3478
I2
sS'version'
p3479
I0
sS'result'
p3480
(dp3481
S'status'
p3482
S'ok'
p3483
sS'loss'
p3484
F0.0084
ssg3454
I82
sS'spec'
p3485
Nsa(dp3486
S'refresh_time'
p3487
g10
(S'\x07\xe3\n\x1a\x008\x04\x0e<\x88'
p3488
tp3489
Rp3490
sS'book_time'
p3491
g10
(S'\x07\xe3\n\x1a\x00*4\t\x9c\xf0'
p3492
tp3493
Rp3494
sS'misc'
p3495
(dp3496
S'tid'
p3497
I83
sS'idxs'
p3498
(dp3499
S'units1'
p3500
(lp3501
I83
asS'units3'
p3502
(lp3503
I83
asS'units2'
p3504
(lp3505
I83
asS'batch_size'
p3506
(lp3507
I83
assS'cmd'
p3508
(S'domain_attachment'
p3509
S'FMinIter_Domain'
p3510
tp3511
sS'vals'
p3512
(dp3513
g3500
(lp3514
F20.0
asg3502
(lp3515
F60.0
asg3504
(lp3516
F20.0
asg3506
(lp3517
I0
assS'workdir'
p3518
NssS'state'
p3519
I2
sg3497
I83
sS'exp_key'
p3520
NsS'version'
p3521
I0
sS'result'
p3522
(dp3523
S'status'
p3524
S'ok'
p3525
sS'loss'
p3526
F0.0135
ssS'owner'
p3527
NsS'spec'
p3528
Nsa(dp3529
S'refresh_time'
p3530
g10
(S'\x07\xe3\n\x1a\x01\t/\x00\x80\xe8'
p3531
tp3532
Rp3533
sS'book_time'
p3534
g10
(S'\x07\xe3\n\x1a\x008\x04\x0e\xd8\xc8'
p3535
tp3536
Rp3537
sS'misc'
p3538
(dp3539
S'tid'
p3540
I84
sS'idxs'
p3541
(dp3542
S'units1'
p3543
(lp3544
I84
asS'units3'
p3545
(lp3546
I84
asS'units2'
p3547
(lp3548
I84
asS'batch_size'
p3549
(lp3550
I84
assS'cmd'
p3551
(S'domain_attachment'
p3552
S'FMinIter_Domain'
p3553
tp3554
sS'vals'
p3555
(dp3556
g3543
(lp3557
F40.0
asg3545
(lp3558
F100.0
asg3547
(lp3559
F40.0
asg3549
(lp3560
I0
assS'workdir'
p3561
NssS'exp_key'
p3562
NsS'owner'
p3563
NsS'state'
p3564
I2
sS'version'
p3565
I0
sS'result'
p3566
(dp3567
S'status'
p3568
S'ok'
p3569
sS'loss'
p3570
F0.0081
ssg3540
I84
sS'spec'
p3571
Nsa(dp3572
S'refresh_time'
p3573
g10
(S'\x07\xe3\n\x1a\x01\x16 \t3x'
p3574
tp3575
Rp3576
sS'book_time'
p3577
g10
(S'\x07\xe3\n\x1a\x01\t/\x01\x15X'
p3578
tp3579
Rp3580
sS'misc'
p3581
(dp3582
S'tid'
p3583
I85
sS'idxs'
p3584
(dp3585
S'units1'
p3586
(lp3587
I85
asS'units3'
p3588
(lp3589
I85
asS'units2'
p3590
(lp3591
I85
asS'batch_size'
p3592
(lp3593
I85
assS'cmd'
p3594
(S'domain_attachment'
p3595
S'FMinIter_Domain'
p3596
tp3597
sS'vals'
p3598
(dp3599
g3586
(lp3600
F0.0
asg3588
(lp3601
F80.0
asg3590
(lp3602
F40.0
asg3592
(lp3603
I0
assS'workdir'
p3604
NssS'state'
p3605
I2
sg3583
I85
sS'exp_key'
p3606
NsS'version'
p3607
I0
sS'result'
p3608
(dp3609
S'status'
p3610
S'ok'
p3611
sS'loss'
p3612
F0.0383
ssS'owner'
p3613
NsS'spec'
p3614
Nsa(dp3615
S'refresh_time'
p3616
g10
(S'\x07\xe3\n\x1a\x01&\x16\r\xa40'
p3617
tp3618
Rp3619
sS'book_time'
p3620
g10
(S'\x07\xe3\n\x1a\x01\x16 \t\xcb\xd0'
p3621
tp3622
Rp3623
sS'misc'
p3624
(dp3625
S'tid'
p3626
I86
sS'idxs'
p3627
(dp3628
S'units1'
p3629
(lp3630
I86
asS'units3'
p3631
(lp3632
I86
asS'units2'
p3633
(lp3634
I86
asS'batch_size'
p3635
(lp3636
I86
assS'cmd'
p3637
(S'domain_attachment'
p3638
S'FMinIter_Domain'
p3639
tp3640
sS'vals'
p3641
(dp3642
g3629
(lp3643
F100.0
asg3631
(lp3644
F100.0
asg3633
(lp3645
F60.0
asg3635
(lp3646
I0
assS'workdir'
p3647
NssS'exp_key'
p3648
NsS'owner'
p3649
NsS'state'
p3650
I2
sS'version'
p3651
I0
sS'result'
p3652
(dp3653
S'status'
p3654
S'ok'
p3655
sS'loss'
p3656
F0.0071
ssg3626
I86
sS'spec'
p3657
Nsa(dp3658
S'refresh_time'
p3659
g10
(S'\x07\xe3\n\x1a\x014,\x01\xd0\xd8'
p3660
tp3661
Rp3662
sS'book_time'
p3663
g10
(S'\x07\xe3\n\x1a\x01&\x16\x0e@p'
p3664
tp3665
Rp3666
sS'misc'
p3667
(dp3668
S'tid'
p3669
I87
sS'idxs'
p3670
(dp3671
S'units1'
p3672
(lp3673
I87
asS'units3'
p3674
(lp3675
I87
asS'units2'
p3676
(lp3677
I87
asS'batch_size'
p3678
(lp3679
I87
assS'cmd'
p3680
(S'domain_attachment'
p3681
S'FMinIter_Domain'
p3682
tp3683
sS'vals'
p3684
(dp3685
g3672
(lp3686
F20.0
asg3674
(lp3687
F20.0
asg3676
(lp3688
F100.0
asg3678
(lp3689
I0
assS'workdir'
p3690
NssS'state'
p3691
I2
sg3669
I87
sS'exp_key'
p3692
NsS'version'
p3693
I0
sS'result'
p3694
(dp3695
S'status'
p3696
S'ok'
p3697
sS'loss'
p3698
F0.0133
ssS'owner'
p3699
NsS'spec'
p3700
Nsa(dp3701
S'refresh_time'
p3702
g10
(S'\x07\xe3\n\x1a\x02\x06$\x0b\xc3\xb8'
p3703
tp3704
Rp3705
sS'book_time'
p3706
g10
(S'\x07\xe3\n\x1a\x014,\x02x\xd0'
p3707
tp3708
Rp3709
sS'misc'
p3710
(dp3711
S'tid'
p3712
I88
sS'idxs'
p3713
(dp3714
S'units1'
p3715
(lp3716
I88
asS'units3'
p3717
(lp3718
I88
asS'units2'
p3719
(lp3720
I88
asS'batch_size'
p3721
(lp3722
I88
assS'cmd'
p3723
(S'domain_attachment'
p3724
S'FMinIter_Domain'
p3725
tp3726
sS'vals'
p3727
(dp3728
g3715
(lp3729
F40.0
asg3717
(lp3730
F40.0
asg3719
(lp3731
F100.0
asg3721
(lp3732
I0
assS'workdir'
p3733
NssS'exp_key'
p3734
NsS'owner'
p3735
NsS'state'
p3736
I2
sS'version'
p3737
I0
sS'result'
p3738
(dp3739
S'status'
p3740
S'ok'
p3741
sS'loss'
p3742
F0.0085
ssg3712
I88
sS'spec'
p3743
Nsa(dp3744
S'refresh_time'
p3745
g10
(S'\x07\xe3\n\x1a\x02\x13+\x0e\x82\xd8'
p3746
tp3747
Rp3748
sS'book_time'
p3749
g10
(S'\x07\xe3\n\x1a\x02\x06$\x0cc\xe0'
p3750
tp3751
Rp3752
sS'misc'
p3753
(dp3754
S'tid'
p3755
I89
sS'idxs'
p3756
(dp3757
S'units1'
p3758
(lp3759
I89
asS'units3'
p3760
(lp3761
I89
asS'units2'
p3762
(lp3763
I89
asS'batch_size'
p3764
(lp3765
I89
assS'cmd'
p3766
(S'domain_attachment'
p3767
S'FMinIter_Domain'
p3768
tp3769
sS'vals'
p3770
(dp3771
g3758
(lp3772
F40.0
asg3760
(lp3773
F20.0
asg3762
(lp3774
F20.0
asg3764
(lp3775
I0
assS'workdir'
p3776
NssS'state'
p3777
I2
sg3755
I89
sS'exp_key'
p3778
NsS'version'
p3779
I0
sS'result'
p3780
(dp3781
S'status'
p3782
S'ok'
p3783
sS'loss'
p3784
F0.0084
ssS'owner'
p3785
NsS'spec'
p3786
Nsa(dp3787
S'refresh_time'
p3788
g10
(S'\x07\xe3\n\x1a\x02 /\x01!\x10'
p3789
tp3790
Rp3791
sS'book_time'
p3792
g10
(S'\x07\xe3\n\x1a\x02\x13+\x0f#\x00'
p3793
tp3794
Rp3795
sS'misc'
p3796
(dp3797
S'tid'
p3798
I90
sS'idxs'
p3799
(dp3800
S'units1'
p3801
(lp3802
I90
asS'units3'
p3803
(lp3804
I90
asS'units2'
p3805
(lp3806
I90
asS'batch_size'
p3807
(lp3808
I90
assS'cmd'
p3809
(S'domain_attachment'
p3810
S'FMinIter_Domain'
p3811
tp3812
sS'vals'
p3813
(dp3814
g3801
(lp3815
F20.0
asg3803
(lp3816
F0.0
asg3805
(lp3817
F20.0
asg3807
(lp3818
I0
assS'workdir'
p3819
NssS'exp_key'
p3820
NsS'owner'
p3821
NsS'state'
p3822
I2
sS'version'
p3823
I0
sS'result'
p3824
(dp3825
S'status'
p3826
S'ok'
p3827
sS'loss'
p3828
F0.0135
ssg3798
I90
sS'spec'
p3829
Nsa(dp3830
S'refresh_time'
p3831
g10
(S'\x07\xe3\n\x1a\x02/\n\t;H'
p3832
tp3833
Rp3834
sS'book_time'
p3835
g10
(S'\x07\xe3\n\x1a\x02 /\x01\xc9\x08'
p3836
tp3837
Rp3838
sS'misc'
p3839
(dp3840
S'tid'
p3841
I91
sS'idxs'
p3842
(dp3843
S'units1'
p3844
(lp3845
I91
asS'units3'
p3846
(lp3847
I91
asS'units2'
p3848
(lp3849
I91
asS'batch_size'
p3850
(lp3851
I91
assS'cmd'
p3852
(S'domain_attachment'
p3853
S'FMinIter_Domain'
p3854
tp3855
sS'vals'
p3856
(dp3857
g3844
(lp3858
F40.0
asg3846
(lp3859
F20.0
asg3848
(lp3860
F60.0
asg3850
(lp3861
I0
assS'workdir'
p3862
NssS'state'
p3863
I2
sg3841
I91
sS'exp_key'
p3864
NsS'version'
p3865
I0
sS'result'
p3866
(dp3867
S'status'
p3868
S'ok'
p3869
sS'loss'
p3870
F0.0079
ssS'owner'
p3871
NsS'spec'
p3872
Nsa(dp3873
S'refresh_time'
p3874
g10
(S'\x07\xe3\n\x1a\x03\x005\x08\x83\xb0'
p3875
tp3876
Rp3877
sS'book_time'
p3878
g10
(S'\x07\xe3\n\x1a\x02/\n\t\xdfX'
p3879
tp3880
Rp3881
sS'misc'
p3882
(dp3883
S'tid'
p3884
I92
sS'idxs'
p3885
(dp3886
S'units1'
p3887
(lp3888
I92
asS'units3'
p3889
(lp3890
I92
asS'units2'
p3891
(lp3892
I92
asS'batch_size'
p3893
(lp3894
I92
assS'cmd'
p3895
(S'domain_attachment'
p3896
S'FMinIter_Domain'
p3897
tp3898
sS'vals'
p3899
(dp3900
g3887
(lp3901
F60.0
asg3889
(lp3902
F20.0
asg3891
(lp3903
F100.0
asg3893
(lp3904
I0
assS'workdir'
p3905
NssS'exp_key'
p3906
NsS'owner'
p3907
NsS'state'
p3908
I2
sS'version'
p3909
I0
sS'result'
p3910
(dp3911
S'status'
p3912
S'ok'
p3913
sS'loss'
p3914
F0.0078
ssg3884
I92
sS'spec'
p3915
Nsa(dp3916
S'refresh_time'
p3917
g10
(S'\x07\xe3\n\x1a\x03\x0f\x18\nw\xb0'
p3918
tp3919
Rp3920
sS'book_time'
p3921
g10
(S"\x07\xe3\n\x1a\x03\x005\t'\xc0"
p3922
tp3923
Rp3924
sS'misc'
p3925
(dp3926
S'tid'
p3927
I93
sS'idxs'
p3928
(dp3929
S'units1'
p3930
(lp3931
I93
asS'units3'
p3932
(lp3933
I93
asS'units2'
p3934
(lp3935
I93
asS'batch_size'
p3936
(lp3937
I93
assS'cmd'
p3938
(S'domain_attachment'
p3939
S'FMinIter_Domain'
p3940
tp3941
sS'vals'
p3942
(dp3943
g3930
(lp3944
F20.0
asg3932
(lp3945
F40.0
asg3934
(lp3946
F100.0
asg3936
(lp3947
I0
assS'workdir'
p3948
NssS'state'
p3949
I2
sg3927
I93
sS'exp_key'
p3950
NsS'version'
p3951
I0
sS'result'
p3952
(dp3953
S'status'
p3954
S'ok'
p3955
sS'loss'
p3956
F0.0132
ssS'owner'
p3957
NsS'spec'
p3958
Nsa(dp3959
S'refresh_time'
p3960
g10
(S'\x07\xe3\n\x1a\x03\x1d"\x07GH'
p3961
tp3962
Rp3963
sS'book_time'
p3964
g10
(S'\x07\xe3\n\x1a\x03\x0f\x18\x0b\x1b\xc0'
p3965
tp3966
Rp3967
sS'misc'
p3968
(dp3969
S'tid'
p3970
I94
sS'idxs'
p3971
(dp3972
S'units1'
p3973
(lp3974
I94
asS'units3'
p3975
(lp3976
I94
asS'units2'
p3977
(lp3978
I94
asS'batch_size'
p3979
(lp3980
I94
assS'cmd'
p3981
(S'domain_attachment'
p3982
S'FMinIter_Domain'
p3983
tp3984
sS'vals'
p3985
(dp3986
g3973
(lp3987
F40.0
asg3975
(lp3988
F40.0
asg3977
(lp3989
F80.0
asg3979
(lp3990
I0
assS'workdir'
p3991
NssS'exp_key'
p3992
NsS'owner'
p3993
NsS'state'
p3994
I2
sS'version'
p3995
I0
sS'result'
p3996
(dp3997
S'status'
p3998
S'ok'
p3999
sS'loss'
p4000
F0.008
ssg3970
I94
sS'spec'
p4001
Nsa(dp4002
S'refresh_time'
p4003
g10
(S'\x07\xe3\n\x1a\x03-)\x03\xa9\x80'
p4004
tp4005
Rp4006
sS'book_time'
p4007
g10
(S'\x07\xe3\n\x1a\x03\x1d"\x07\xfa\xf8'
p4008
tp4009
Rp4010
sS'misc'
p4011
(dp4012
S'tid'
p4013
I95
sS'idxs'
p4014
(dp4015
S'units1'
p4016
(lp4017
I95
asS'units3'
p4018
(lp4019
I95
asS'units2'
p4020
(lp4021
I95
asS'batch_size'
p4022
(lp4023
I95
assS'cmd'
p4024
(S'domain_attachment'
p4025
S'FMinIter_Domain'
p4026
tp4027
sS'vals'
p4028
(dp4029
g4016
(lp4030
F100.0
asg4018
(lp4031
F60.0
asg4020
(lp4032
F20.0
asg4022
(lp4033
I0
assS'workdir'
p4034
NssS'state'
p4035
I2
sg4013
I95
sS'exp_key'
p4036
NsS'version'
p4037
I0
sS'result'
p4038
(dp4039
S'status'
p4040
S'ok'
p4041
sS'loss'
p4042
F0.0076
ssS'owner'
p4043
NsS'spec'
p4044
Nsa(dp4045
S'refresh_time'
p4046
g10
(S'\x07\xe3\n\x1a\x04\x00\x11\x0c\xc1\xa0'
p4047
tp4048
Rp4049
sS'book_time'
p4050
g10
(S'\x07\xe3\n\x1a\x03-)\x04e\x00'
p4051
tp4052
Rp4053
sS'misc'
p4054
(dp4055
S'tid'
p4056
I96
sS'idxs'
p4057
(dp4058
S'units1'
p4059
(lp4060
I96
asS'units3'
p4061
(lp4062
I96
asS'units2'
p4063
(lp4064
I96
asS'batch_size'
p4065
(lp4066
I96
assS'cmd'
p4067
(S'domain_attachment'
p4068
S'FMinIter_Domain'
p4069
tp4070
sS'vals'
p4071
(dp4072
g4059
(lp4073
F40.0
asg4061
(lp4074
F60.0
asg4063
(lp4075
F0.0
asg4065
(lp4076
I0
assS'workdir'
p4077
NssS'exp_key'
p4078
NsS'owner'
p4079
NsS'state'
p4080
I2
sS'version'
p4081
I0
sS'result'
p4082
(dp4083
S'status'
p4084
S'ok'
p4085
sS'loss'
p4086
F0.0084
ssg4056
I96
sS'spec'
p4087
Nsa(dp4088
S'refresh_time'
p4089
g10
(S'\x07\xe3\n\x1a\x04\x105\x02\x84\x88'
p4090
tp4091
Rp4092
sS'book_time'
p4093
g10
(S'\x07\xe3\n\x1a\x04\x00\x11\ruP'
p4094
tp4095
Rp4096
sS'misc'
p4097
(dp4098
S'tid'
p4099
I97
sS'idxs'
p4100
(dp4101
S'units1'
p4102
(lp4103
I97
asS'units3'
p4104
(lp4105
I97
asS'units2'
p4106
(lp4107
I97
asS'batch_size'
p4108
(lp4109
I97
assS'cmd'
p4110
(S'domain_attachment'
p4111
S'FMinIter_Domain'
p4112
tp4113
sS'vals'
p4114
(dp4115
g4102
(lp4116
F20.0
asg4104
(lp4117
F60.0
asg4106
(lp4118
F80.0
asg4108
(lp4119
I0
assS'workdir'
p4120
NssS'state'
p4121
I2
sg4099
I97
sS'exp_key'
p4122
NsS'version'
p4123
I0
sS'result'
p4124
(dp4125
S'status'
p4126
S'ok'
p4127
sS'loss'
p4128
F0.0132
ssS'owner'
p4129
NsS'spec'
p4130
Nsa(dp4131
S'refresh_time'
p4132
g10
(S'\x07\xe3\n\x1a\x04 \x16\x04I\xa8'
p4133
tp4134
Rp4135
sS'book_time'
p4136
g10
(S'\x07\xe3\n\x1a\x04\x105\x03@\x08'
p4137
tp4138
Rp4139
sS'misc'
p4140
(dp4141
S'tid'
p4142
I98
sS'idxs'
p4143
(dp4144
S'units1'
p4145
(lp4146
I98
asS'units3'
p4147
(lp4148
I98
asS'units2'
p4149
(lp4150
I98
asS'batch_size'
p4151
(lp4152
I98
assS'cmd'
p4153
(S'domain_attachment'
p4154
S'FMinIter_Domain'
p4155
tp4156
sS'vals'
p4157
(dp4158
g4145
(lp4159
F40.0
asg4147
(lp4160
F0.0
asg4149
(lp4161
F80.0
asg4151
(lp4162
I0
assS'workdir'
p4163
NssS'exp_key'
p4164
NsS'owner'
p4165
NsS'state'
p4166
I2
sS'version'
p4167
I0
sS'result'
p4168
(dp4169
S'status'
p4170
S'ok'
p4171
sS'loss'
p4172
F0.008
ssg4142
I98
sS'spec'
p4173
Nsa(dp4174
S'refresh_time'
p4175
g10
(S'\x07\xe3\n\x1a\x040 \n\xba\x18'
p4176
tp4177
Rp4178
sS'book_time'
p4179
g10
(S'\x07\xe3\n\x1a\x04 \x16\x05\x14\xc8'
p4180
tp4181
Rp4182
sS'misc'
p4183
(dp4184
S'tid'
p4185
I99
sS'idxs'
p4186
(dp4187
S'units1'
p4188
(lp4189
I99
asS'units3'
p4190
(lp4191
I99
asS'units2'
p4192
(lp4193
I99
asS'batch_size'
p4194
(lp4195
I99
assS'cmd'
p4196
(S'domain_attachment'
p4197
S'FMinIter_Domain'
p4198
tp4199
sS'vals'
p4200
(dp4201
g4188
(lp4202
F80.0
asg4190
(lp4203
F20.0
asg4192
(lp4204
F60.0
asg4194
(lp4205
I0
assS'workdir'
p4206
NssS'state'
p4207
I2
sg4185
I99
sS'exp_key'
p4208
NsS'version'
p4209
I0
sS'result'
p4210
(dp4211
S'status'
p4212
S'ok'
p4213
sS'loss'
p4214
F0.0073
ssS'owner'
p4215
NsS'spec'
p4216
Nsa(dp4217
S'refresh_time'
p4218
g10
(S'\x07\xe3\n\x1a\x05\x045\x06\x87\xe0'
p4219
tp4220
Rp4221
sS'book_time'
p4222
g10
(S'\x07\xe3\n\x1a\x040 \x0by\x80'
p4223
tp4224
Rp4225
sS'misc'
p4226
(dp4227
S'tid'
p4228
I100
sS'idxs'
p4229
(dp4230
S'units1'
p4231
(lp4232
I100
asS'units3'
p4233
(lp4234
I100
asS'units2'
p4235
(lp4236
I100
asS'batch_size'
p4237
(lp4238
I100
assS'cmd'
p4239
(S'domain_attachment'
p4240
S'FMinIter_Domain'
p4241
tp4242
sS'vals'
p4243
(dp4244
g4231
(lp4245
F80.0
asg4233
(lp4246
F40.0
asg4235
(lp4247
F100.0
asg4237
(lp4248
I0
assS'workdir'
p4249
NssS'exp_key'
p4250
NsS'owner'
p4251
NsS'state'
p4252
I2
sS'version'
p4253
I0
sS'result'
p4254
(dp4255
S'status'
p4256
S'ok'
p4257
sS'loss'
p4258
F0.0068
ssg4228
I100
sS'spec'
p4259
Nsa(dp4260
S'refresh_time'
p4261
g10
(S'\x07\xe3\n\x1a\x05\x19(\x073\xc0'
p4262
tp4263
Rp4264
sS'book_time'
p4265
g10
(S'\x07\xe3\n\x1a\x05\x045\x07V\xe8'
p4266
tp4267
Rp4268
sS'misc'
p4269
(dp4270
S'tid'
p4271
I101
sS'idxs'
p4272
(dp4273
S'units1'
p4274
(lp4275
I101
asS'units3'
p4276
(lp4277
I101
asS'units2'
p4278
(lp4279
I101
asS'batch_size'
p4280
(lp4281
I101
assS'cmd'
p4282
(S'domain_attachment'
p4283
S'FMinIter_Domain'
p4284
tp4285
sS'vals'
p4286
(dp4287
g4274
(lp4288
F100.0
asg4276
(lp4289
F80.0
asg4278
(lp4290
F100.0
asg4280
(lp4291
I0
assS'workdir'
p4292
NssS'state'
p4293
I2
sg4271
I101
sS'exp_key'
p4294
NsS'version'
p4295
I0
sS'result'
p4296
(dp4297
S'status'
p4298
S'ok'
p4299
sS'loss'
p4300
F0.0075
ssS'owner'
p4301
NsS'spec'
p4302
Nsa(dp4303
S'refresh_time'
p4304
g10
(S'\x07\xe3\n\x1a\x05-\x15\x08\x12h'
p4305
tp4306
Rp4307
sS'book_time'
p4308
g10
(S'\x07\xe3\n\x1a\x05\x19(\x08\x06\xb0'
p4309
tp4310
Rp4311
sS'misc'
p4312
(dp4313
S'tid'
p4314
I102
sS'idxs'
p4315
(dp4316
S'units1'
p4317
(lp4318
I102
asS'units3'
p4319
(lp4320
I102
asS'units2'
p4321
(lp4322
I102
asS'batch_size'
p4323
(lp4324
I102
assS'cmd'
p4325
(S'domain_attachment'
p4326
S'FMinIter_Domain'
p4327
tp4328
sS'vals'
p4329
(dp4330
g4317
(lp4331
F60.0
asg4319
(lp4332
F60.0
asg4321
(lp4333
F20.0
asg4323
(lp4334
I0
assS'workdir'
p4335
NssS'exp_key'
p4336
NsS'owner'
p4337
NsS'state'
p4338
I2
sS'version'
p4339
I0
sS'result'
p4340
(dp4341
S'status'
p4342
S'ok'
p4343
sS'loss'
p4344
F0.0078
ssg4314
I102
sS'spec'
p4345
Nsa(dp4346
S'refresh_time'
p4347
g10
(S'\x07\xe3\n\x1a\x06\x04\x19\t;H'
p4348
tp4349
Rp4350
sS'book_time'
p4351
g10
(S'\x07\xe3\n\x1a\x05-\x15\x08\xdd\x88'
p4352
tp4353
Rp4354
sS'misc'
p4355
(dp4356
S'tid'
p4357
I103
sS'idxs'
p4358
(dp4359
S'units1'
p4360
(lp4361
I103
asS'units3'
p4362
(lp4363
I103
asS'units2'
p4364
(lp4365
I103
asS'batch_size'
p4366
(lp4367
I103
assS'cmd'
p4368
(S'domain_attachment'
p4369
S'FMinIter_Domain'
p4370
tp4371
sS'vals'
p4372
(dp4373
g4360
(lp4374
F0.0
asg4362
(lp4375
F60.0
asg4364
(lp4376
F40.0
asg4366
(lp4377
I0
assS'workdir'
p4378
NssS'state'
p4379
I2
sg4357
I103
sS'exp_key'
p4380
NsS'version'
p4381
I0
sS'result'
p4382
(dp4383
S'status'
p4384
S'ok'
p4385
sS'loss'
p4386
F0.0383
ssS'owner'
p4387
NsS'spec'
p4388
Nsa(dp4389
S'refresh_time'
p4390
g10
(S'\x07\xe3\n\x1a\x06\x17\x0e\x0b\xe6\xe0'
p4391
tp4392
Rp4393
sS'book_time'
p4394
g10
(S'\x07\xe3\n\x1a\x06\x047\n\xe1('
p4395
tp4396
Rp4397
sS'misc'
p4398
(dp4399
S'tid'
p4400
I104
sS'idxs'
p4401
(dp4402
S'units1'
p4403
(lp4404
I104
asS'units3'
p4405
(lp4406
I104
asS'units2'
p4407
(lp4408
I104
asS'batch_size'
p4409
(lp4410
I104
assS'cmd'
p4411
(S'domain_attachment'
p4412
S'FMinIter_Domain'
p4413
tp4414
sS'vals'
p4415
(dp4416
g4403
(lp4417
F0.0
asg4405
(lp4418
F60.0
asg4407
(lp4419
F20.0
asg4409
(lp4420
I0
assS'workdir'
p4421
NssS'exp_key'
p4422
NsS'owner'
p4423
NsS'state'
p4424
I2
sS'version'
p4425
I0
sS'result'
p4426
(dp4427
S'status'
p4428
S'ok'
p4429
sS'loss'
p4430
F0.0383
ssg4400
I104
sS'spec'
p4431
Nsa(dp4432
S'refresh_time'
p4433
g10
(S'\x07\xe3\n\x1a\x06*\n\x050 '
p4434
tp4435
Rp4436
sS'book_time'
p4437
g10
(S'\x07\xe3\n\x1a\x06\x17\x0e\x0c\xfc8'
p4438
tp4439
Rp4440
sS'misc'
p4441
(dp4442
S'tid'
p4443
I105
sS'idxs'
p4444
(dp4445
S'units1'
p4446
(lp4447
I105
asS'units3'
p4448
(lp4449
I105
asS'units2'
p4450
(lp4451
I105
asS'batch_size'
p4452
(lp4453
I105
assS'cmd'
p4454
(S'domain_attachment'
p4455
S'FMinIter_Domain'
p4456
tp4457
sS'vals'
p4458
(dp4459
g4446
(lp4460
F80.0
asg4448
(lp4461
F40.0
asg4450
(lp4462
F0.0
asg4452
(lp4463
I0
assS'workdir'
p4464
NssS'state'
p4465
I2
sg4443
I105
sS'exp_key'
p4466
NsS'version'
p4467
I0
sS'result'
p4468
(dp4469
S'status'
p4470
S'ok'
p4471
sS'loss'
p4472
F0.0081
ssS'owner'
p4473
NsS'spec'
p4474
Nsa(dp4475
S'refresh_time'
p4476
g10
(S'\x07\xe3\n\x1a\x07\x01\x0b\x06\xc2x'
p4477
tp4478
Rp4479
sS'book_time'
p4480
g10
(S'\x07\xe3\n\x1a\x06*\n\x06\x1a\x80'
p4481
tp4482
Rp4483
sS'misc'
p4484
(dp4485
S'tid'
p4486
I106
sS'idxs'
p4487
(dp4488
S'units1'
p4489
(lp4490
I106
asS'units3'
p4491
(lp4492
I106
asS'units2'
p4493
(lp4494
I106
asS'batch_size'
p4495
(lp4496
I106
assS'cmd'
p4497
(S'domain_attachment'
p4498
S'FMinIter_Domain'
p4499
tp4500
sS'vals'
p4501
(dp4502
g4489
(lp4503
F60.0
asg4491
(lp4504
F100.0
asg4493
(lp4505
F60.0
asg4495
(lp4506
I0
assS'workdir'
p4507
NssS'exp_key'
p4508
NsS'owner'
p4509
NsS'state'
p4510
I2
sS'version'
p4511
I0
sS'result'
p4512
(dp4513
S'status'
p4514
S'ok'
p4515
sS'loss'
p4516
F0.0078
ssg4486
I106
sS'spec'
p4517
Nsa(dp4518
S'refresh_time'
p4519
g10
(S'\x07\xe3\n\x1a\x07\x16\x1a\x0428'
p4520
tp4521
Rp4522
sS'book_time'
p4523
g10
(S'\x07\xe3\n\x1a\x07\x01\x0b\x07\x81\xe0'
p4524
tp4525
Rp4526
sS'misc'
p4527
(dp4528
S'tid'
p4529
I107
sS'idxs'
p4530
(dp4531
S'units1'
p4532
(lp4533
I107
asS'units3'
p4534
(lp4535
I107
asS'units2'
p4536
(lp4537
I107
asS'batch_size'
p4538
(lp4539
I107
assS'cmd'
p4540
(S'domain_attachment'
p4541
S'FMinIter_Domain'
p4542
tp4543
sS'vals'
p4544
(dp4545
g4532
(lp4546
F100.0
asg4534
(lp4547
F0.0
asg4536
(lp4548
F100.0
asg4538
(lp4549
I0
assS'workdir'
p4550
NssS'state'
p4551
I2
sg4529
I107
sS'exp_key'
p4552
NsS'version'
p4553
I0
sS'result'
p4554
(dp4555
S'status'
p4556
S'ok'
p4557
sS'loss'
p4558
F0.0073
ssS'owner'
p4559
NsS'spec'
p4560
Nsa(dp4561
S'refresh_time'
p4562
g10
(S'\x07\xe3\n\x1a\x07)\x05\x0b\xee\xb0'
p4563
tp4564
Rp4565
sS'book_time'
p4566
g10
(S'\x07\xe3\n\x1a\x07\x16\x1a\x05\x01@'
p4567
tp4568
Rp4569
sS'misc'
p4570
(dp4571
S'tid'
p4572
I108
sS'idxs'
p4573
(dp4574
S'units1'
p4575
(lp4576
I108
asS'units3'
p4577
(lp4578
I108
asS'units2'
p4579
(lp4580
I108
asS'batch_size'
p4581
(lp4582
I108
assS'cmd'
p4583
(S'domain_attachment'
p4584
S'FMinIter_Domain'
p4585
tp4586
sS'vals'
p4587
(dp4588
g4575
(lp4589
F0.0
asg4577
(lp4590
F100.0
asg4579
(lp4591
F20.0
asg4581
(lp4592
I0
assS'workdir'
p4593
NssS'exp_key'
p4594
NsS'owner'
p4595
NsS'state'
p4596
I2
sS'version'
p4597
I0
sS'result'
p4598
(dp4599
S'status'
p4600
S'ok'
p4601
sS'loss'
p4602
F0.0383
ssg4572
I108
sS'spec'
p4603
Nsa(dp4604
S'refresh_time'
p4605
g10
(S'\x07\xe3\n\x1a\x08\x023\x01\xff\xb8'
p4606
tp4607
Rp4608
sS'book_time'
p4609
g10
(S'\x07\xe3\n\x1a\x07)\x05\x0c\xc1\xa0'
p4610
tp4611
Rp4612
sS'misc'
p4613
(dp4614
S'tid'
p4615
I109
sS'idxs'
p4616
(dp4617
S'units1'
p4618
(lp4619
I109
asS'units3'
p4620
(lp4621
I109
asS'units2'
p4622
(lp4623
I109
asS'batch_size'
p4624
(lp4625
I109
assS'cmd'
p4626
(S'domain_attachment'
p4627
S'FMinIter_Domain'
p4628
tp4629
sS'vals'
p4630
(dp4631
g4618
(lp4632
F20.0
asg4620
(lp4633
F80.0
asg4622
(lp4634
F100.0
asg4624
(lp4635
I0
assS'workdir'
p4636
NssS'state'
p4637
I2
sg4615
I109
sS'exp_key'
p4638
NsS'version'
p4639
I0
sS'result'
p4640
(dp4641
S'status'
p4642
S'ok'
p4643
sS'loss'
p4644
F0.0131
ssS'owner'
p4645
NsS'spec'
p4646
Nsa(dp4647
S'refresh_time'
p4648
g10
(S'\x07\xe3\n\x1a\x08\x16\x01\x0be\xf8'
p4649
tp4650
Rp4651
sS'book_time'
p4652
g10
(S'\x07\xe3\n\x1a\x08\x023\x02\xf9\xb8'
p4653
tp4654
Rp4655
sS'misc'
p4656
(dp4657
S'tid'
p4658
I110
sS'idxs'
p4659
(dp4660
S'units1'
p4661
(lp4662
I110
asS'units3'
p4663
(lp4664
I110
asS'units2'
p4665
(lp4666
I110
asS'batch_size'
p4667
(lp4668
I110
assS'cmd'
p4669
(S'domain_attachment'
p4670
S'FMinIter_Domain'
p4671
tp4672
sS'vals'
p4673
(dp4674
g4661
(lp4675
F20.0
asg4663
(lp4676
F100.0
asg4665
(lp4677
F40.0
asg4667
(lp4678
I0
assS'workdir'
p4679
NssS'exp_key'
p4680
NsS'owner'
p4681
NsS'state'
p4682
I2
sS'version'
p4683
I0
sS'result'
p4684
(dp4685
S'status'
p4686
S'ok'
p4687
sS'loss'
p4688
F0.0138
ssg4658
I110
sS'spec'
p4689
Nsa(dp4690
S'refresh_time'
p4691
g10
(S'\x07\xe3\n\x1a\x08).\x0e\xa9\xe8'
p4692
tp4693
Rp4694
sS'book_time'
p4695
g10
(S'\x07\xe3\n\x1a\x08\x16\x01\x0c8\xe8'
p4696
tp4697
Rp4698
sS'misc'
p4699
(dp4700
S'tid'
p4701
I111
sS'idxs'
p4702
(dp4703
S'units1'
p4704
(lp4705
I111
asS'units3'
p4706
(lp4707
I111
asS'units2'
p4708
(lp4709
I111
asS'batch_size'
p4710
(lp4711
I111
assS'cmd'
p4712
(S'domain_attachment'
p4713
S'FMinIter_Domain'
p4714
tp4715
sS'vals'
p4716
(dp4717
g4704
(lp4718
F80.0
asg4706
(lp4719
F0.0
asg4708
(lp4720
F20.0
asg4710
(lp4721
I0
assS'workdir'
p4722
NssS'state'
p4723
I2
sg4701
I111
sS'exp_key'
p4724
NsS'version'
p4725
I0
sS'result'
p4726
(dp4727
S'status'
p4728
S'ok'
p4729
sS'loss'
p4730
F0.008
ssS'owner'
p4731
NsS'spec'
p4732
Nsa(dp4733
S'refresh_time'
p4734
g10
(S'\x07\xe3\n\x1a\t\x01/\x08hX'
p4735
tp4736
Rp4737
sS'book_time'
p4738
g10
(S'\x07\xe3\n\x1a\x08)/\x00\xb3\xb0'
p4739
tp4740
Rp4741
sS'misc'
p4742
(dp4743
S'tid'
p4744
I112
sS'idxs'
p4745
(dp4746
S'units1'
p4747
(lp4748
I112
asS'units3'
p4749
(lp4750
I112
asS'units2'
p4751
(lp4752
I112
asS'batch_size'
p4753
(lp4754
I112
assS'cmd'
p4755
(S'domain_attachment'
p4756
S'FMinIter_Domain'
p4757
tp4758
sS'vals'
p4759
(dp4760
g4747
(lp4761
F0.0
asg4749
(lp4762
F40.0
asg4751
(lp4763
F60.0
asg4753
(lp4764
I0
assS'workdir'
p4765
NssS'exp_key'
p4766
NsS'owner'
p4767
NsS'state'
p4768
I2
sS'version'
p4769
I0
sS'result'
p4770
(dp4771
S'status'
p4772
S'ok'
p4773
sS'loss'
p4774
F0.0383
ssg4744
I112
sS'spec'
p4775
Nsa(dp4776
S'refresh_time'
p4777
g10
(S'\x07\xe3\n\x1a\t\x15\x03\x02Q\xc0'
p4778
tp4779
Rp4780
sS'book_time'
p4781
g10
(S'\x07\xe3\n\x1a\t\x01/\t7`'
p4782
tp4783
Rp4784
sS'misc'
p4785
(dp4786
S'tid'
p4787
I113
sS'idxs'
p4788
(dp4789
S'units1'
p4790
(lp4791
I113
asS'units3'
p4792
(lp4793
I113
asS'units2'
p4794
(lp4795
I113
asS'batch_size'
p4796
(lp4797
I113
assS'cmd'
p4798
(S'domain_attachment'
p4799
S'FMinIter_Domain'
p4800
tp4801
sS'vals'
p4802
(dp4803
g4790
(lp4804
F80.0
asg4792
(lp4805
F80.0
asg4794
(lp4806
F60.0
asg4796
(lp4807
I0
assS'workdir'
p4808
NssS'state'
p4809
I2
sg4787
I113
sS'exp_key'
p4810
NsS'version'
p4811
I0
sS'result'
p4812
(dp4813
S'status'
p4814
S'ok'
p4815
sS'loss'
p4816
F0.007
ssS'owner'
p4817
NsS'spec'
p4818
Nsa(dp4819
S'refresh_time'
p4820
g10
(S"\x07\xe3\n\x1a\t'\x19\x04\x80X"
p4821
tp4822
Rp4823
sS'book_time'
p4824
g10
(S'\x07\xe3\n\x1a\t\x15\x03\x03 \xc8'
p4825
tp4826
Rp4827
sS'misc'
p4828
(dp4829
S'tid'
p4830
I114
sS'idxs'
p4831
(dp4832
S'units1'
p4833
(lp4834
I114
asS'units3'
p4835
(lp4836
I114
asS'units2'
p4837
(lp4838
I114
asS'batch_size'
p4839
(lp4840
I114
assS'cmd'
p4841
(S'domain_attachment'
p4842
S'FMinIter_Domain'
p4843
tp4844
sS'vals'
p4845
(dp4846
g4833
(lp4847
F40.0
asg4835
(lp4848
F100.0
asg4837
(lp4849
F0.0
asg4839
(lp4850
I0
assS'workdir'
p4851
NssS'exp_key'
p4852
NsS'owner'
p4853
NsS'state'
p4854
I2
sS'version'
p4855
I0
sS'result'
p4856
(dp4857
S'status'
p4858
S'ok'
p4859
sS'loss'
p4860
F0.0084
ssg4830
I114
sS'spec'
p4861
Nsa(dp4862
S'refresh_time'
p4863
g10
(S'\x07\xe3\n\x1a\t:\x11\x0c\xec\x98'
p4864
tp4865
Rp4866
sS'book_time'
p4867
g10
(S"\x07\xe3\n\x1a\t'\x19\x05_\x00"
p4868
tp4869
Rp4870
sS'misc'
p4871
(dp4872
S'tid'
p4873
I115
sS'idxs'
p4874
(dp4875
S'units1'
p4876
(lp4877
I115
asS'units3'
p4878
(lp4879
I115
asS'units2'
p4880
(lp4881
I115
asS'batch_size'
p4882
(lp4883
I115
assS'cmd'
p4884
(S'domain_attachment'
p4885
S'FMinIter_Domain'
p4886
tp4887
sS'vals'
p4888
(dp4889
g4876
(lp4890
F20.0
asg4878
(lp4891
F40.0
asg4880
(lp4892
F0.0
asg4882
(lp4893
I0
assS'workdir'
p4894
NssS'state'
p4895
I2
sg4873
I115
sS'exp_key'
p4896
NsS'version'
p4897
I0
sS'result'
p4898
(dp4899
S'status'
p4900
S'ok'
p4901
sS'loss'
p4902
F0.0135
ssS'owner'
p4903
NsS'spec'
p4904
Nsa(dp4905
S'refresh_time'
p4906
g10
(S"\x07\xe3\n\x1a\n\x12'\x08\xd1\xd0"
p4907
tp4908
Rp4909
sS'book_time'
p4910
g10
(S'\x07\xe3\n\x1a\t:\x11\r\xcb@'
p4911
tp4912
Rp4913
sS'misc'
p4914
(dp4915
S'tid'
p4916
I116
sS'idxs'
p4917
(dp4918
S'units1'
p4919
(lp4920
I116
asS'units3'
p4921
(lp4922
I116
asS'units2'
p4923
(lp4924
I116
asS'batch_size'
p4925
(lp4926
I116
assS'cmd'
p4927
(S'domain_attachment'
p4928
S'FMinIter_Domain'
p4929
tp4930
sS'vals'
p4931
(dp4932
g4919
(lp4933
F20.0
asg4921
(lp4934
F0.0
asg4923
(lp4935
F80.0
asg4925
(lp4936
I0
assS'workdir'
p4937
NssS'exp_key'
p4938
NsS'owner'
p4939
NsS'state'
p4940
I2
sS'version'
p4941
I0
sS'result'
p4942
(dp4943
S'status'
p4944
S'ok'
p4945
sS'loss'
p4946
F0.0132
ssg4916
I116
sS'spec'
p4947
Nsa(dp4948
S'refresh_time'
p4949
g10
(S"\x07\xe3\n\x1a\n'\x13\x0e_\xb0"
p4950
tp4951
Rp4952
sS'book_time'
p4953
g10
(S"\x07\xe3\n\x1a\n\x12'\t\xf6\xc8"
p4954
tp4955
Rp4956
sS'misc'
p4957
(dp4958
S'tid'
p4959
I117
sS'idxs'
p4960
(dp4961
S'units1'
p4962
(lp4963
I117
asS'units3'
p4964
(lp4965
I117
asS'units2'
p4966
(lp4967
I117
asS'batch_size'
p4968
(lp4969
I117
assS'cmd'
p4970
(S'domain_attachment'
p4971
S'FMinIter_Domain'
p4972
tp4973
sS'vals'
p4974
(dp4975
g4962
(lp4976
F40.0
asg4964
(lp4977
F60.0
asg4966
(lp4978
F20.0
asg4968
(lp4979
I0
assS'workdir'
p4980
NssS'state'
p4981
I2
sg4959
I117
sS'exp_key'
p4982
NsS'version'
p4983
I0
sS'result'
p4984
(dp4985
S'status'
p4986
S'ok'
p4987
sS'loss'
p4988
F0.0084
ssS'owner'
p4989
NsS'spec'
p4990
Nsa(dp4991
S'refresh_time'
p4992
g10
(S'\x07\xe3\n\x1a\n;1\x0f\x13`'
p4993
tp4994
Rp4995
sS'book_time'
p4996
g10
(S"\x07\xe3\n\x1a\n'\x14\x02\x88p"
p4997
tp4998
Rp4999
sS'misc'
p5000
(dp5001
S'tid'
p5002
I118
sS'idxs'
p5003
(dp5004
S'units1'
p5005
(lp5006
I118
asS'units3'
p5007
(lp5008
I118
asS'units2'
p5009
(lp5010
I118
asS'batch_size'
p5011
(lp5012
I118
assS'cmd'
p5013
(S'domain_attachment'
p5014
S'FMinIter_Domain'
p5015
tp5016
sS'vals'
p5017
(dp5018
g5005
(lp5019
F40.0
asg5007
(lp5020
F60.0
asg5009
(lp5021
F60.0
asg5011
(lp5022
I0
assS'workdir'
p5023
NssS'exp_key'
p5024
NsS'owner'
p5025
NsS'state'
p5026
I2
sS'version'
p5027
I0
sS'result'
p5028
(dp5029
S'status'
p5030
S'ok'
p5031
sS'loss'
p5032
F0.0079
ssg5002
I118
sS'spec'
p5033
Nsa(dp5034
S'refresh_time'
p5035
g10
(S'\x07\xe3\n\x1a\x0b\x15:\x02\x13@'
p5036
tp5037
Rp5038
sS'book_time'
p5039
g10
(S'\x07\xe3\n\x1a\n;2\x00\xea`'
p5040
tp5041
Rp5042
sS'misc'
p5043
(dp5044
S'tid'
p5045
I119
sS'idxs'
p5046
(dp5047
S'units1'
p5048
(lp5049
I119
asS'units3'
p5050
(lp5051
I119
asS'units2'
p5052
(lp5053
I119
asS'batch_size'
p5054
(lp5055
I119
assS'cmd'
p5056
(S'domain_attachment'
p5057
S'FMinIter_Domain'
p5058
tp5059
sS'vals'
p5060
(dp5061
g5048
(lp5062
F100.0
asg5050
(lp5063
F60.0
asg5052
(lp5064
F60.0
asg5054
(lp5065
I0
assS'workdir'
p5066
NssS'state'
p5067
I2
sg5045
I119
sS'exp_key'
p5068
NsS'version'
p5069
I0
sS'result'
p5070
(dp5071
S'status'
p5072
S'ok'
p5073
sS'loss'
p5074
F0.0073
ssS'owner'
p5075
NsS'spec'
p5076
Nsa(dp5077
S'refresh_time'
p5078
g10
(S'\x07\xe3\n\x1a\x0b+\x03\ns\xc8'
p5079
tp5080
Rp5081
sS'book_time'
p5082
g10
(S'\x07\xe3\n\x1a\x0b\x15:\x02\xe2H'
p5083
tp5084
Rp5085
sS'misc'
p5086
(dp5087
S'tid'
p5088
I120
sS'idxs'
p5089
(dp5090
S'units1'
p5091
(lp5092
I120
asS'units3'
p5093
(lp5094
I120
asS'units2'
p5095
(lp5096
I120
asS'batch_size'
p5097
(lp5098
I120
assS'cmd'
p5099
(S'domain_attachment'
p5100
S'FMinIter_Domain'
p5101
tp5102
sS'vals'
p5103
(dp5104
g5091
(lp5105
F100.0
asg5093
(lp5106
F20.0
asg5095
(lp5107
F60.0
asg5097
(lp5108
I0
assS'workdir'
p5109
NssS'exp_key'
p5110
NsS'owner'
p5111
NsS'state'
p5112
I2
sS'version'
p5113
I0
sS'result'
p5114
(dp5115
S'status'
p5116
S'ok'
p5117
sS'loss'
p5118
F0.0072
ssg5088
I120
sS'spec'
p5119
Nsa(dp5120
S'refresh_time'
p5121
g10
(S'\x07\xe3\n\x1a\x0b:7\x04\xf5\x88'
p5122
tp5123
Rp5124
sS'book_time'
p5125
g10
(S'\x07\xe3\n\x1a\x0b+\x03\x0bRp'
p5126
tp5127
Rp5128
sS'misc'
p5129
(dp5130
S'tid'
p5131
I121
sS'idxs'
p5132
(dp5133
S'units1'
p5134
(lp5135
I121
asS'units3'
p5136
(lp5137
I121
asS'units2'
p5138
(lp5139
I121
asS'batch_size'
p5140
(lp5141
I121
assS'cmd'
p5142
(S'domain_attachment'
p5143
S'FMinIter_Domain'
p5144
tp5145
sS'vals'
p5146
(dp5147
g5134
(lp5148
F80.0
asg5136
(lp5149
F100.0
asg5138
(lp5150
F40.0
asg5140
(lp5151
I0
assS'workdir'
p5152
NssS'state'
p5153
I2
sg5131
I121
sS'exp_key'
p5154
NsS'version'
p5155
I0
sS'result'
p5156
(dp5157
S'status'
p5158
S'ok'
p5159
sS'loss'
p5160
F0.0077
ssS'owner'
p5161
NsS'spec'
p5162
Nsa(dp5163
S'refresh_time'
p5164
g10
(S'\x07\xe3\n\x1a\x0c\x11\x0b\n-x'
p5165
tp5166
Rp5167
sS'book_time'
p5168
g10
(S'\x07\xe3\n\x1a\x0b:7\x05\xc0\xa8'
p5169
tp5170
Rp5171
sS'misc'
p5172
(dp5173
S'tid'
p5174
I122
sS'idxs'
p5175
(dp5176
S'units1'
p5177
(lp5178
I122
asS'units3'
p5179
(lp5180
I122
asS'units2'
p5181
(lp5182
I122
asS'batch_size'
p5183
(lp5184
I122
assS'cmd'
p5185
(S'domain_attachment'
p5186
S'FMinIter_Domain'
p5187
tp5188
sS'vals'
p5189
(dp5190
g5177
(lp5191
F80.0
asg5179
(lp5192
F60.0
asg5181
(lp5193
F100.0
asg5183
(lp5194
I0
assS'workdir'
p5195
NssS'exp_key'
p5196
NsS'owner'
p5197
NsS'state'
p5198
I2
sS'version'
p5199
I0
sS'result'
p5200
(dp5201
S'status'
p5202
S'ok'
p5203
sS'loss'
p5204
F0.0068
ssg5174
I122
sS'spec'
p5205
Nsa(dp5206
S'refresh_time'
p5207
g10
(S'\x07\xe3\n\x1a\x0c -\x0e\xf8\x08'
p5208
tp5209
Rp5210
sS'book_time'
p5211
g10
(S'\x07\xe3\n\x1a\x0c\x11\x0b\x0b30'
p5212
tp5213
Rp5214
sS'misc'
p5215
(dp5216
S'tid'
p5217
I123
sS'idxs'
p5218
(dp5219
S'units1'
p5220
(lp5221
I123
asS'units3'
p5222
(lp5223
I123
asS'units2'
p5224
(lp5225
I123
asS'batch_size'
p5226
(lp5227
I123
assS'cmd'
p5228
(S'domain_attachment'
p5229
S'FMinIter_Domain'
p5230
tp5231
sS'vals'
p5232
(dp5233
g5220
(lp5234
F80.0
asg5222
(lp5235
F80.0
asg5224
(lp5236
F0.0
asg5226
(lp5237
I0
assS'workdir'
p5238
NssS'state'
p5239
I2
sg5217
I123
sS'exp_key'
p5240
NsS'version'
p5241
I0
sS'result'
p5242
(dp5243
S'status'
p5244
S'ok'
p5245
sS'loss'
p5246
F0.0081
ssS'owner'
p5247
NsS'spec'
p5248
Nsa(dp5249
S'refresh_time'
p5250
g10
(S'\x07\xe3\n\x1a\x0c1:\r\x17\x90'
p5251
tp5252
Rp5253
sS'book_time'
p5254
g10
(S'\x07\xe3\n\x1a\x0c .\x00\x80\xe8'
p5255
tp5256
Rp5257
sS'misc'
p5258
(dp5259
S'tid'
p5260
I124
sS'idxs'
p5261
(dp5262
S'units1'
p5263
(lp5264
I124
asS'units3'
p5265
(lp5266
I124
asS'units2'
p5267
(lp5268
I124
asS'batch_size'
p5269
(lp5270
I124
assS'cmd'
p5271
(S'domain_attachment'
p5272
S'FMinIter_Domain'
p5273
tp5274
sS'vals'
p5275
(dp5276
g5263
(lp5277
F80.0
asg5265
(lp5278
F20.0
asg5267
(lp5279
F80.0
asg5269
(lp5280
I0
assS'workdir'
p5281
NssS'exp_key'
p5282
NsS'owner'
p5283
NsS'state'
p5284
I2
sS'version'
p5285
I0
sS'result'
p5286
(dp5287
S'status'
p5288
S'ok'
p5289
sS'loss'
p5290
F0.007
ssg5260
I124
sS'spec'
p5291
Nsa(dp5292
S'refresh_time'
p5293
g10
(S'\x07\xe3\n\x1a\r\x06-\x00\xfa\x00'
p5294
tp5295
Rp5296
sS'book_time'
p5297
g10
(S'\x07\xe3\n\x1a\x0c1:\x0e\x11\x90'
p5298
tp5299
Rp5300
sS'misc'
p5301
(dp5302
S'tid'
p5303
I125
sS'idxs'
p5304
(dp5305
S'units1'
p5306
(lp5307
I125
asS'units3'
p5308
(lp5309
I125
asS'units2'
p5310
(lp5311
I125
asS'batch_size'
p5312
(lp5313
I125
assS'cmd'
p5314
(S'domain_attachment'
p5315
S'FMinIter_Domain'
p5316
tp5317
sS'vals'
p5318
(dp5319
g5306
(lp5320
F40.0
asg5308
(lp5321
F20.0
asg5310
(lp5322
F100.0
asg5312
(lp5323
I0
assS'workdir'
p5324
NssS'state'
p5325
I2
sg5303
I125
sS'exp_key'
p5326
NsS'version'
p5327
I0
sS'result'
p5328
(dp5329
S'status'
p5330
S'ok'
p5331
sS'loss'
p5332
F0.0085
ssS'owner'
p5333
NsS'spec'
p5334
Nsa(dp5335
S'refresh_time'
p5336
g10
(S'\x07\xe3\n\x1a\r\x17-\x07\xc4H'
p5337
tp5338
Rp5339
sS'book_time'
p5340
g10
(S'\x07\xe3\n\x1a\r\x06-\x01\xfb\xd0'
p5341
tp5342
Rp5343
sS'misc'
p5344
(dp5345
S'tid'
p5346
I126
sS'idxs'
p5347
(dp5348
S'units1'
p5349
(lp5350
I126
asS'units3'
p5351
(lp5352
I126
asS'units2'
p5353
(lp5354
I126
asS'batch_size'
p5355
(lp5356
I126
assS'cmd'
p5357
(S'domain_attachment'
p5358
S'FMinIter_Domain'
p5359
tp5360
sS'vals'
p5361
(dp5362
g5349
(lp5363
F60.0
asg5351
(lp5364
F60.0
asg5353
(lp5365
F40.0
asg5355
(lp5366
I0
assS'workdir'
p5367
NssS'exp_key'
p5368
NsS'owner'
p5369
NsS'state'
p5370
I2
sS'version'
p5371
I0
sS'result'
p5372
(dp5373
S'status'
p5374
S'ok'
p5375
sS'loss'
p5376
F0.0073
ssg5346
I126
sS'spec'
p5377
Nsa(dp5378
S'refresh_time'
p5379
g10
(S"\x07\xe3\n\x1a\r'\x02\x02\xa7\xb0"
p5380
tp5381
Rp5382
sS'book_time'
p5383
g10
(S'\x07\xe3\n\x1a\r\x17-\x08\xba`'
p5384
tp5385
Rp5386
sS'misc'
p5387
(dp5388
S'tid'
p5389
I127
sS'idxs'
p5390
(dp5391
S'units1'
p5392
(lp5393
I127
asS'units3'
p5394
(lp5395
I127
asS'units2'
p5396
(lp5397
I127
asS'batch_size'
p5398
(lp5399
I127
assS'cmd'
p5400
(S'domain_attachment'
p5401
S'FMinIter_Domain'
p5402
tp5403
sS'vals'
p5404
(dp5405
g5392
(lp5406
F100.0
asg5394
(lp5407
F60.0
asg5396
(lp5408
F0.0
asg5398
(lp5409
I0
assS'workdir'
p5410
NssS'state'
p5411
I2
sg5389
I127
sS'exp_key'
p5412
NsS'version'
p5413
I0
sS'result'
p5414
(dp5415
S'status'
p5416
S'ok'
p5417
sS'loss'
p5418
F0.0074
ssS'owner'
p5419
NsS'spec'
p5420
Nsa(dp5421
S'refresh_time'
p5422
g10
(S'\x07\xe3\n\x1a\r6\n\t\xb4`'
p5423
tp5424
Rp5425
sS'book_time'
p5426
g10
(S"\x07\xe3\n\x1a\r'\x02\x03z\xa0"
p5427
tp5428
Rp5429
sS'misc'
p5430
(dp5431
S'tid'
p5432
I128
sS'idxs'
p5433
(dp5434
S'units1'
p5435
(lp5436
I128
asS'units3'
p5437
(lp5438
I128
asS'units2'
p5439
(lp5440
I128
asS'batch_size'
p5441
(lp5442
I128
assS'cmd'
p5443
(S'domain_attachment'
p5444
S'FMinIter_Domain'
p5445
tp5446
sS'vals'
p5447
(dp5448
g5435
(lp5449
F60.0
asg5437
(lp5450
F20.0
asg5439
(lp5451
F40.0
asg5441
(lp5452
I0
assS'workdir'
p5453
NssS'exp_key'
p5454
NsS'owner'
p5455
NsS'state'
p5456
I2
sS'version'
p5457
I0
sS'result'
p5458
(dp5459
S'status'
p5460
S'ok'
p5461
sS'loss'
p5462
F0.0073
ssg5432
I128
sS'spec'
p5463
Nsa(dp5464
S'refresh_time'
p5465
g10
(S'\x07\xe3\n\x1a\x0e\n\x14\x04I\xa8'
p5466
tp5467
Rp5468
sS'book_time'
p5469
g10
(S'\x07\xe3\n\x1a\r6\n\n\x8f '
p5470
tp5471
Rp5472
sS'misc'
p5473
(dp5474
S'tid'
p5475
I129
sS'idxs'
p5476
(dp5477
S'units1'
p5478
(lp5479
I129
asS'units3'
p5480
(lp5481
I129
asS'units2'
p5482
(lp5483
I129
asS'batch_size'
p5484
(lp5485
I129
assS'cmd'
p5486
(S'domain_attachment'
p5487
S'FMinIter_Domain'
p5488
tp5489
sS'vals'
p5490
(dp5491
g5478
(lp5492
F100.0
asg5480
(lp5493
F80.0
asg5482
(lp5494
F20.0
asg5484
(lp5495
I0
assS'workdir'
p5496
NssS'state'
p5497
I2
sg5475
I129
sS'exp_key'
p5498
NsS'version'
p5499
I0
sS'result'
p5500
(dp5501
S'status'
p5502
S'ok'
p5503
sS'loss'
p5504
F0.0074
ssS'owner'
p5505
NsS'spec'
p5506
Nsa(dp5507
S'refresh_time'
p5508
g10
(S'\x07\xe3\n\x1a\x0e\x1b)\rqh'
p5509
tp5510
Rp5511
sS'book_time'
p5512
g10
(S'\x07\xe3\n\x1a\x0e\n\x14\x05(P'
p5513
tp5514
Rp5515
sS'misc'
p5516
(dp5517
S'tid'
p5518
I130
sS'idxs'
p5519
(dp5520
S'units1'
p5521
(lp5522
I130
asS'units3'
p5523
(lp5524
I130
asS'units2'
p5525
(lp5526
I130
asS'batch_size'
p5527
(lp5528
I130
assS'cmd'
p5529
(S'domain_attachment'
p5530
S'FMinIter_Domain'
p5531
tp5532
sS'vals'
p5533
(dp5534
g5521
(lp5535
F100.0
asg5523
(lp5536
F20.0
asg5525
(lp5537
F100.0
asg5527
(lp5538
I0
assS'workdir'
p5539
NssS'exp_key'
p5540
NsS'owner'
p5541
NsS'state'
p5542
I2
sS'version'
p5543
I0
sS'result'
p5544
(dp5545
S'status'
p5546
S'ok'
p5547
sS'loss'
p5548
F0.0076
ssg5518
I130
sS'spec'
p5549
Nsa(dp5550
S'refresh_time'
p5551
g10
(S'\x07\xe3\n\x1a\x0e.\x0e\t\xa4\xc0'
p5552
tp5553
Rp5554
sS'book_time'
p5555
g10
(S'\x07\xe3\n\x1a\x0e\x1b)\x0eS\xf8'
p5556
tp5557
Rp5558
sS'misc'
p5559
(dp5560
S'tid'
p5561
I131
sS'idxs'
p5562
(dp5563
S'units1'
p5564
(lp5565
I131
asS'units3'
p5566
(lp5567
I131
asS'units2'
p5568
(lp5569
I131
asS'batch_size'
p5570
(lp5571
I131
assS'cmd'
p5572
(S'domain_attachment'
p5573
S'FMinIter_Domain'
p5574
tp5575
sS'vals'
p5576
(dp5577
g5564
(lp5578
F20.0
asg5566
(lp5579
F0.0
asg5568
(lp5580
F40.0
asg5570
(lp5581
I0
assS'workdir'
p5582
NssS'state'
p5583
I2
sg5561
I131
sS'exp_key'
p5584
NsS'version'
p5585
I0
sS'result'
p5586
(dp5587
S'status'
p5588
S'ok'
p5589
sS'loss'
p5590
F0.0138
ssS'owner'
p5591
NsS'spec'
p5592
Nsa(dp5593
S'refresh_time'
p5594
g10
(S'\x07\xe3\n\x1a\x0f\x06\x0e\x0f6\x88'
p5595
tp5596
Rp5597
sS'book_time'
p5598
g10
(S'\x07\xe3\n\x1a\x0e.\x0e\n\xa6\x90'
p5599
tp5600
Rp5601
sS'misc'
p5602
(dp5603
S'tid'
p5604
I132
sS'idxs'
p5605
(dp5606
S'units1'
p5607
(lp5608
I132
asS'units3'
p5609
(lp5610
I132
asS'units2'
p5611
(lp5612
I132
asS'batch_size'
p5613
(lp5614
I132
assS'cmd'
p5615
(S'domain_attachment'
p5616
S'FMinIter_Domain'
p5617
tp5618
sS'vals'
p5619
(dp5620
g5607
(lp5621
F80.0
asg5609
(lp5622
F40.0
asg5611
(lp5623
F40.0
asg5613
(lp5624
I0
assS'workdir'
p5625
NssS'exp_key'
p5626
NsS'owner'
p5627
NsS'state'
p5628
I2
sS'version'
p5629
I0
sS'result'
p5630
(dp5631
S'status'
p5632
S'ok'
p5633
sS'loss'
p5634
F0.0076
ssg5604
I132
sS'spec'
p5635
Nsa(dp5636
S'refresh_time'
p5637
g10
(S'\x07\xe3\n\x1a\x0f\x19\x14\x0bb\x10'
p5638
tp5639
Rp5640
sS'book_time'
p5641
g10
(S'\x07\xe3\n\x1a\x0f\x06\x0f\x00\xfd\xe8'
p5642
tp5643
Rp5644
sS'misc'
p5645
(dp5646
S'tid'
p5647
I133
sS'idxs'
p5648
(dp5649
S'units1'
p5650
(lp5651
I133
asS'units3'
p5652
(lp5653
I133
asS'units2'
p5654
(lp5655
I133
asS'batch_size'
p5656
(lp5657
I133
assS'cmd'
p5658
(S'domain_attachment'
p5659
S'FMinIter_Domain'
p5660
tp5661
sS'vals'
p5662
(dp5663
g5650
(lp5664
F80.0
asg5652
(lp5665
F100.0
asg5654
(lp5666
F80.0
asg5656
(lp5667
I0
assS'workdir'
p5668
NssS'state'
p5669
I2
sg5647
I133
sS'exp_key'
p5670
NsS'version'
p5671
I0
sS'result'
p5672
(dp5673
S'status'
p5674
S'ok'
p5675
sS'loss'
p5676
F0.0068
ssS'owner'
p5677
NsS'spec'
p5678
Nsa(dp5679
S'refresh_time'
p5680
g10
(S'\x07\xe3\n\x1a\x0f*\x03\t\x0ch'
p5681
tp5682
Rp5683
sS'book_time'
p5684
g10
(S'\x07\xe3\n\x1a\x0f\x19\x14\x0c\\\x10'
p5685
tp5686
Rp5687
sS'misc'
p5688
(dp5689
S'tid'
p5690
I134
sS'idxs'
p5691
(dp5692
S'units1'
p5693
(lp5694
I134
asS'units3'
p5695
(lp5696
I134
asS'units2'
p5697
(lp5698
I134
asS'batch_size'
p5699
(lp5700
I134
assS'cmd'
p5701
(S'domain_attachment'
p5702
S'FMinIter_Domain'
p5703
tp5704
sS'vals'
p5705
(dp5706
g5693
(lp5707
F0.0
asg5695
(lp5708
F40.0
asg5697
(lp5709
F0.0
asg5699
(lp5710
I0
assS'workdir'
p5711
NssS'exp_key'
p5712
NsS'owner'
p5713
NsS'state'
p5714
I2
sS'version'
p5715
I0
sS'result'
p5716
(dp5717
S'status'
p5718
S'ok'
p5719
sS'loss'
p5720
F0.0383
ssg5690
I134
sS'spec'
p5721
Nsa(dp5722
S'refresh_time'
p5723
g10
(S'\x07\xe3\n\x1a\x10\x04\x1c\n\x7f\x80'
p5724
tp5725
Rp5726
sS'book_time'
p5727
g10
(S'\x07\xe3\n\x1a\x0f*\x03\n5H'
p5728
tp5729
Rp5730
sS'misc'
p5731
(dp5732
S'tid'
p5733
I135
sS'idxs'
p5734
(dp5735
S'units1'
p5736
(lp5737
I135
asS'units3'
p5738
(lp5739
I135
asS'units2'
p5740
(lp5741
I135
asS'batch_size'
p5742
(lp5743
I135
assS'cmd'
p5744
(S'domain_attachment'
p5745
S'FMinIter_Domain'
p5746
tp5747
sS'vals'
p5748
(dp5749
g5736
(lp5750
F100.0
asg5738
(lp5751
F20.0
asg5740
(lp5752
F80.0
asg5742
(lp5753
I0
assS'workdir'
p5754
NssS'state'
p5755
I2
sg5733
I135
sS'exp_key'
p5756
NsS'version'
p5757
I0
sS'result'
p5758
(dp5759
S'status'
p5760
S'ok'
p5761
sS'loss'
p5762
F0.0073
ssS'owner'
p5763
NsS'spec'
p5764
Nsa(dp5765
S'refresh_time'
p5766
g10
(S'\x07\xe3\n\x1a\x10\x18\x00\x07\xe3\x88'
p5767
tp5768
Rp5769
sS'book_time'
p5770
g10
(S'\x07\xe3\n\x1a\x10\x04\x1c\x0b\xa4x'
p5771
tp5772
Rp5773
sS'misc'
p5774
(dp5775
S'tid'
p5776
I136
sS'idxs'
p5777
(dp5778
S'units1'
p5779
(lp5780
I136
asS'units3'
p5781
(lp5782
I136
asS'units2'
p5783
(lp5784
I136
asS'batch_size'
p5785
(lp5786
I136
assS'cmd'
p5787
(S'domain_attachment'
p5788
S'FMinIter_Domain'
p5789
tp5790
sS'vals'
p5791
(dp5792
g5779
(lp5793
F40.0
asg5781
(lp5794
F40.0
asg5783
(lp5795
F60.0
asg5785
(lp5796
I0
assS'workdir'
p5797
NssS'exp_key'
p5798
NsS'owner'
p5799
NsS'state'
p5800
I2
sS'version'
p5801
I0
sS'result'
p5802
(dp5803
S'status'
p5804
S'ok'
p5805
sS'loss'
p5806
F0.008
ssg5776
I136
sS'spec'
p5807
Nsa(dp5808
S'refresh_time'
p5809
g10
(S'\x07\xe3\n\x1a\x10+,\x08\x1a8'
p5810
tp5811
Rp5812
sS'book_time'
p5813
g10
(S'\x07\xe3\n\x1a\x10\x18\x00\tq\xf8'
p5814
tp5815
Rp5816
sS'misc'
p5817
(dp5818
S'tid'
p5819
I137
sS'idxs'
p5820
(dp5821
S'units1'
p5822
(lp5823
I137
asS'units3'
p5824
(lp5825
I137
asS'units2'
p5826
(lp5827
I137
asS'batch_size'
p5828
(lp5829
I137
assS'cmd'
p5830
(S'domain_attachment'
p5831
S'FMinIter_Domain'
p5832
tp5833
sS'vals'
p5834
(dp5835
g5822
(lp5836
F100.0
asg5824
(lp5837
F80.0
asg5826
(lp5838
F60.0
asg5828
(lp5839
I0
assS'workdir'
p5840
NssS'state'
p5841
I2
sg5819
I137
sS'exp_key'
p5842
NsS'version'
p5843
I0
sS'result'
p5844
(dp5845
S'status'
p5846
S'ok'
p5847
sS'loss'
p5848
F0.0072
ssS'owner'
p5849
NsS'spec'
p5850
Nsa(dp5851
S'refresh_time'
p5852
g10
(S'\x07\xe3\n\x1a\x11\x01:\x02\xf1\xe8'
p5853
tp5854
Rp5855
sS'book_time'
p5856
g10
(S'\x07\xe3\n\x1a\x10+,\tZ\x88'
p5857
tp5858
Rp5859
sS'misc'
p5860
(dp5861
S'tid'
p5862
I138
sS'idxs'
p5863
(dp5864
S'units1'
p5865
(lp5866
I138
asS'units3'
p5867
(lp5868
I138
asS'units2'
p5869
(lp5870
I138
asS'batch_size'
p5871
(lp5872
I138
assS'cmd'
p5873
(S'domain_attachment'
p5874
S'FMinIter_Domain'
p5875
tp5876
sS'vals'
p5877
(dp5878
g5865
(lp5879
F0.0
asg5867
(lp5880
F40.0
asg5869
(lp5881
F100.0
asg5871
(lp5882
I0
assS'workdir'
p5883
NssS'exp_key'
p5884
NsS'owner'
p5885
NsS'state'
p5886
I2
sS'version'
p5887
I0
sS'result'
p5888
(dp5889
S'status'
p5890
S'ok'
p5891
sS'loss'
p5892
F0.0384
ssg5862
I138
sS'spec'
p5893
Nsa(dp5894
S'refresh_time'
p5895
g10
(S'\x07\xe3\n\x1a\x11\x1b\x02\x0e\xa6\x00'
p5896
tp5897
Rp5898
sS'book_time'
p5899
g10
(S'\x07\xe3\n\x1a\x11\x01:\x03\xef\xd0'
p5900
tp5901
Rp5902
sS'misc'
p5903
(dp5904
S'tid'
p5905
I139
sS'idxs'
p5906
(dp5907
S'units1'
p5908
(lp5909
I139
asS'units3'
p5910
(lp5911
I139
asS'units2'
p5912
(lp5913
I139
asS'batch_size'
p5914
(lp5915
I139
assS'cmd'
p5916
(S'domain_attachment'
p5917
S'FMinIter_Domain'
p5918
tp5919
sS'vals'
p5920
(dp5921
g5908
(lp5922
F60.0
asg5910
(lp5923
F80.0
asg5912
(lp5924
F100.0
asg5914
(lp5925
I0
assS'workdir'
p5926
NssS'state'
p5927
I2
sg5905
I139
sS'exp_key'
p5928
NsS'version'
p5929
I0
sS'result'
p5930
(dp5931
S'status'
p5932
S'ok'
p5933
sS'loss'
p5934
F0.0077
ssS'owner'
p5935
NsS'spec'
p5936
NsasS'_exp_key'
p5937
NsS'attachments'
p5938
(dp5939
sS'_dynamic_trials'
p5940
(lp5941
g8
ag52
ag72
ag92
ag112
ag132
ag175
ag218
ag261
ag304
ag347
ag390
ag433
ag476
ag519
ag562
ag605
ag648
ag691
ag734
ag777
ag820
ag863
ag906
ag949
ag992
ag1035
ag1078
ag1121
ag1164
ag1207
ag1250
ag1293
ag1336
ag1379
ag1422
ag1465
ag1508
ag1551
ag1594
ag1637
ag1680
ag1723
ag1766
ag1809
ag1852
ag1895
ag1938
ag1981
ag2024
ag2067
ag2110
ag2153
ag2196
ag2239
ag2282
ag2325
ag2368
ag2411
ag2454
ag2497
ag2540
ag2583
ag2626
ag2669
ag2712
ag2755
ag2798
ag2841
ag2884
ag2927
ag2970
ag3013
ag3056
ag3099
ag3142
ag3185
ag3228
ag3271
ag3314
ag3357
ag3400
ag3443
ag3486
ag3529
ag3572
ag3615
ag3658
ag3701
ag3744
ag3787
ag3830
ag3873
ag3916
ag3959
ag4002
ag4045
ag4088
ag4131
ag4174
ag4217
ag4260
ag4303
ag4346
ag4389
ag4432
ag4475
ag4518
ag4561
ag4604
ag4647
ag4690
ag4733
ag4776
ag4819
ag4862
ag4905
ag4948
ag4991
ag5034
ag5077
ag5120
ag5163
ag5206
ag5249
ag5292
ag5335
ag5378
ag5421
ag5464
ag5507
ag5550
ag5593
ag5636
ag5679
ag5722
ag5765
ag5808
ag5851
ag5894
asS'_ids'
p5942
c__builtin__
set
p5943
((lp5944
I0
aI1
aI2
aI3
aI4
aI5
aI6
aI7
aI8
aI9
aI10
aI11
aI12
aI13
aI14
aI15
aI16
aI17
aI18
aI19
aI20
aI21
aI22
aI23
aI24
aI25
aI26
aI27
aI28
aI29
aI30
aI31
aI32
aI33
aI34
aI35
aI36
aI37
aI38
aI39
aI40
aI41
aI42
aI43
aI44
aI45
aI46
aI47
aI48
aI49
aI50
aI51
aI52
aI53
aI54
aI55
aI56
aI57
aI58
aI59
aI60
aI61
aI62
aI63
aI64
aI65
aI66
aI67
aI68
aI69
aI70
aI71
aI72
aI73
aI74
aI75
aI76
aI77
aI78
aI79
aI80
aI81
aI82
aI83
aI84
aI85
aI86
aI87
aI88
aI89
aI90
aI91
aI92
aI93
aI94
aI95
aI96
aI97
aI98
aI99
aI100
aI101
aI102
aI103
aI104
aI105
aI106
aI107
aI108
aI109
aI110
aI111
aI112
aI113
aI114
aI115
aI116
aI117
aI118
aI119
aI120
aI121
aI122
aI123
aI124
aI125
aI126
aI127
aI128
aI129
aI130
aI131
aI132
aI133
aI134
aI135
aI136
aI137
aI138
aI139
atp5945
Rp5946
sb.