ccopy_reg
_reconstructor
p0
(chyperopt.base
Trials
p1
c__builtin__
object
p2
Ntp3
Rp4
(dp5
S'_trials'
p6
(lp7
(dp8
S'refresh_time'
p9
cdatetime
datetime
p10
(S'\x07\xe3\n\x0e\x15"4\x03n\xe8'
p11
tp12
Rp13
sS'book_time'
p14
g10
(S'\x07\xe3\n\x0e\x15\x126\x06\\\xe8'
p15
tp16
Rp17
sS'misc'
p18
(dp19
S'tid'
p20
I0
sS'idxs'
p21
(dp22
S'units1'
p23
(lp24
I0
asS'units2'
p25
(lp26
I0
asS'batch_size'
p27
(lp28
I0
assS'cmd'
p29
(S'domain_attachment'
p30
S'FMinIter_Domain'
p31
tp32
sS'vals'
p33
(dp34
g23
(lp35
F15.0
asg25
(lp36
F5.0
asg27
(lp37
I0
assS'workdir'
p38
NssS'state'
p39
I2
sg20
I0
sS'exp_key'
p40
NsS'version'
p41
I0
sS'result'
p42
(dp43
S'status'
p44
S'ok'
p45
sS'loss'
p46
F0.0173
ssS'owner'
p47
NsS'spec'
p48
Nsa(dp49
g9
g10
(S'\x07\xe3\n\x0e\x152\t\x00\x8c\xa0'
p50
tp51
Rp52
sg14
g10
(S'\x07\xe3\n\x0e\x15"4\x03r\xd0'
p53
tp54
Rp55
sg18
(dp56
g20
I1
sg21
(dp57
g23
(lp58
I1
asg25
(lp59
I1
asg27
(lp60
I1
assg29
(g30
g31
tp61
sg33
(dp62
g23
(lp63
F0.0
asg25
(lp64
F90.0
asg27
(lp65
I0
assg38
Nssg39
I2
sg20
I1
sg40
Nsg41
I0
sg42
(dp66
g44
g45
sg46
F0.0368
ssg47
Nsg48
Nsa(dp67
g9
g10
(S'\x07\xe3\n\x0e\x16\x19\x1d\x0e\xecP'
p68
tp69
Rp70
sg14
g10
(S'\x07\xe3\n\x0e\x152\t\x00\x90\x88'
p71
tp72
Rp73
sg18
(dp74
g20
I2
sg21
(dp75
g23
(lp76
I2
asg25
(lp77
I2
asg27
(lp78
I2
assg29
(g30
g31
tp79
sg33
(dp80
g23
(lp81
F70.0
asg25
(lp82
F60.0
asg27
(lp83
I0
assg38
Nssg39
I2
sg20
I2
sg40
Nsg41
I0
sg42
(dp84
g44
g45
sg46
F0.0074
ssg47
Nsg48
Nsa(dp85
g9
g10
(S'\x07\xe3\n\x0e\x17\x00\r\x05n\xa0'
p86
tp87
Rp88
sg14
g10
(S'\x07\xe3\n\x0e\x16\x19\x1d\x0e\xf8\x08'
p89
tp90
Rp91
sg18
(dp92
g20
I3
sg21
(dp93
g23
(lp94
I3
asg25
(lp95
I3
asg27
(lp96
I3
assg29
(g30
g31
tp97
sg33
(dp98
g23
(lp99
F10.0
asg25
(lp100
F40.0
asg27
(lp101
I0
assg38
Nssg39
I2
sg20
I3
sg40
Nsg41
I0
sg42
(dp102
g44
g45
sg46
F0.0236
ssg47
Nsg48
Nsa(dp103
g9
g10
(S'\x07\xe3\n\x0e\x17#\x0f\x03\xf7\xa0'
p104
tp105
Rp106
sg14
g10
(S'\x07\xe3\n\x0e\x17\x00\r\x05~@'
p107
tp108
Rp109
sg18
(dp110
g20
I4
sg21
(dp111
g23
(lp112
I4
asg25
(lp113
I4
asg27
(lp114
I4
assg29
(g30
g31
tp115
sg33
(dp116
g23
(lp117
F25.0
asg25
(lp118
F35.0
asg27
(lp119
I0
assg38
Nssg39
I2
sg20
I4
sg40
Nsg41
I0
sg42
(dp120
g44
g45
sg46
F0.0108
ssg47
Nsg48
Nsa(dp121
S'refresh_time'
p122
g10
(S'\x07\xe3\n\x0f\x00\x0b\x00\x0e\x82\xd8'
p123
tp124
Rp125
sS'book_time'
p126
g10
(S'\x07\xe3\n\x0e\x17#\x0f\x0428'
p127
tp128
Rp129
sS'misc'
p130
(dp131
S'tid'
p132
I5
sS'idxs'
p133
(dp134
S'units1'
p135
(lp136
I5
asS'units2'
p137
(lp138
I5
asS'batch_size'
p139
(lp140
I5
assS'cmd'
p141
(S'domain_attachment'
p142
S'FMinIter_Domain'
p143
tp144
sS'vals'
p145
(dp146
g135
(lp147
F45.0
asg137
(lp148
F10.0
asg139
(lp149
I0
assS'workdir'
p150
NssS'exp_key'
p151
NsS'owner'
p152
NsS'state'
p153
I2
sS'version'
p154
I0
sS'result'
p155
(dp156
S'status'
p157
S'ok'
p158
sS'loss'
p159
F0.012
ssg132
I5
sS'spec'
p160
Nsa(dp161
S'refresh_time'
p162
g10
(S'\x07\xe3\n\x0f\x00/$\x0bN\x88'
p163
tp164
Rp165
sS'book_time'
p166
g10
(S'\x07\xe3\n\x0f\x00\x0b\x00\x0e\xc5@'
p167
tp168
Rp169
sS'misc'
p170
(dp171
S'tid'
p172
I6
sS'idxs'
p173
(dp174
S'units1'
p175
(lp176
I6
asS'units2'
p177
(lp178
I6
asS'batch_size'
p179
(lp180
I6
assS'cmd'
p181
(S'domain_attachment'
p182
S'FMinIter_Domain'
p183
tp184
sS'vals'
p185
(dp186
g175
(lp187
F50.0
asg177
(lp188
F75.0
asg179
(lp189
I0
assS'workdir'
p190
NssS'state'
p191
I2
sg172
I6
sS'exp_key'
p192
NsS'version'
p193
I0
sS'result'
p194
(dp195
S'status'
p196
S'ok'
p197
sS'loss'
p198
F0.0068
ssS'owner'
p199
NsS'spec'
p200
Nsa(dp201
S'refresh_time'
p202
g10
(S'\x07\xe3\n\x0f\x01\x19(\x04\xda0'
p203
tp204
Rp205
sS'book_time'
p206
g10
(S'\x07\xe3\n\x0f\x00/$\x0b\x8d\x08'
p207
tp208
Rp209
sS'misc'
p210
(dp211
S'tid'
p212
I7
sS'idxs'
p213
(dp214
S'units1'
p215
(lp216
I7
asS'units2'
p217
(lp218
I7
asS'batch_size'
p219
(lp220
I7
assS'cmd'
p221
(S'domain_attachment'
p222
S'FMinIter_Domain'
p223
tp224
sS'vals'
p225
(dp226
g215
(lp227
F80.0
asg217
(lp228
F55.0
asg219
(lp229
I0
assS'workdir'
p230
NssS'exp_key'
p231
NsS'owner'
p232
NsS'state'
p233
I2
sS'version'
p234
I0
sS'result'
p235
(dp236
S'status'
p237
S'ok'
p238
sS'loss'
p239
F0.0136
ssg212
I7
sS'spec'
p240
Nsa(dp241
S'refresh_time'
p242
g10
(S'\x07\xe3\n\x0f\x02\x05%\r\xda\xe0'
p243
tp244
Rp245
sS'book_time'
p246
g10
(S'\x07\xe3\n\x0f\x01\x19(\x05 \x80'
p247
tp248
Rp249
sS'misc'
p250
(dp251
S'tid'
p252
I8
sS'idxs'
p253
(dp254
S'units1'
p255
(lp256
I8
asS'units2'
p257
(lp258
I8
asS'batch_size'
p259
(lp260
I8
assS'cmd'
p261
(S'domain_attachment'
p262
S'FMinIter_Domain'
p263
tp264
sS'vals'
p265
(dp266
g255
(lp267
F85.0
asg257
(lp268
F90.0
asg259
(lp269
I0
assS'workdir'
p270
NssS'state'
p271
I2
sg252
I8
sS'exp_key'
p272
NsS'version'
p273
I0
sS'result'
p274
(dp275
S'status'
p276
S'ok'
p277
sS'loss'
p278
F0.0115
ssS'owner'
p279
NsS'spec'
p280
Nsa(dp281
S'refresh_time'
p282
g10
(S'\x07\xe3\n\x0f\x02*%\x05\xb4\xf0'
p283
tp284
Rp285
sS'book_time'
p286
g10
(S'\x07\xe3\n\x0f\x02\x05%\x0e\x15x'
p287
tp288
Rp289
sS'misc'
p290
(dp291
S'tid'
p292
I9
sS'idxs'
p293
(dp294
S'units1'
p295
(lp296
I9
asS'units2'
p297
(lp298
I9
asS'batch_size'
p299
(lp300
I9
assS'cmd'
p301
(S'domain_attachment'
p302
S'FMinIter_Domain'
p303
tp304
sS'vals'
p305
(dp306
g295
(lp307
F75.0
asg297
(lp308
F30.0
asg299
(lp309
I0
assS'workdir'
p310
NssS'exp_key'
p311
NsS'owner'
p312
NsS'state'
p313
I2
sS'version'
p314
I0
sS'result'
p315
(dp316
S'status'
p317
S'ok'
p318
sS'loss'
p319
F0.0087
ssg292
I9
sS'spec'
p320
Nsa(dp321
S'refresh_time'
p322
g10
(S'\x07\xe3\n\x0f\x03\x13\t\x03\x82p'
p323
tp324
Rp325
sS'book_time'
p326
g10
(S'\x07\xe3\n\x0f\x02*%\x06\x06\xf8'
p327
tp328
Rp329
sS'misc'
p330
(dp331
S'tid'
p332
I10
sS'idxs'
p333
(dp334
S'units1'
p335
(lp336
I10
asS'units2'
p337
(lp338
I10
asS'batch_size'
p339
(lp340
I10
assS'cmd'
p341
(S'domain_attachment'
p342
S'FMinIter_Domain'
p343
tp344
sS'vals'
p345
(dp346
g335
(lp347
F80.0
asg337
(lp348
F35.0
asg339
(lp349
I0
assS'workdir'
p350
NssS'state'
p351
I2
sg332
I10
sS'exp_key'
p352
NsS'version'
p353
I0
sS'result'
p354
(dp355
S'status'
p356
S'ok'
p357
sS'loss'
p358
F0.0116
ssS'owner'
p359
NsS'spec'
p360
Nsa(dp361
S'refresh_time'
p362
g10
(S'\x07\xe3\n\x0f\x0373\ns\xc8'
p363
tp364
Rp365
sS'book_time'
p366
g10
(S'\x07\xe3\n\x0f\x03\x13\t\x03\xc4\xd8'
p367
tp368
Rp369
sS'misc'
p370
(dp371
S'tid'
p372
I11
sS'idxs'
p373
(dp374
S'units1'
p375
(lp376
I11
asS'units2'
p377
(lp378
I11
asS'batch_size'
p379
(lp380
I11
assS'cmd'
p381
(S'domain_attachment'
p382
S'FMinIter_Domain'
p383
tp384
sS'vals'
p385
(dp386
g375
(lp387
F45.0
asg377
(lp388
F55.0
asg379
(lp389
I0
assS'workdir'
p390
NssS'exp_key'
p391
NsS'owner'
p392
NsS'state'
p393
I2
sS'version'
p394
I0
sS'result'
p395
(dp396
S'status'
p397
S'ok'
p398
sS'loss'
p399
F0.0128
ssg372
I11
sS'spec'
p400
Nsa(dp401
S'refresh_time'
p402
g10
(S'\x07\xe3\n\x0f\x04\x1f%\x0cPX'
p403
tp404
Rp405
sS'book_time'
p406
g10
(S'\x07\xe3\n\x0f\x0373\n\xc1\xe8'
p407
tp408
Rp409
sS'misc'
p410
(dp411
S'tid'
p412
I12
sS'idxs'
p413
(dp414
S'units1'
p415
(lp416
I12
asS'units2'
p417
(lp418
I12
asS'batch_size'
p419
(lp420
I12
assS'cmd'
p421
(S'domain_attachment'
p422
S'FMinIter_Domain'
p423
tp424
sS'vals'
p425
(dp426
g415
(lp427
F15.0
asg417
(lp428
F80.0
asg419
(lp429
I0
assS'workdir'
p430
NssS'state'
p431
I2
sg412
I12
sS'exp_key'
p432
NsS'version'
p433
I0
sS'result'
p434
(dp435
S'status'
p436
S'ok'
p437
sS'loss'
p438
F0.0176
ssS'owner'
p439
NsS'spec'
p440
Nsa(dp441
S'refresh_time'
p442
g10
(S'\x07\xe3\n\x0f\x05\x06\x1e\nP\xa0'
p443
tp444
Rp445
sS'book_time'
p446
g10
(S'\x07\xe3\n\x0f\x04\x1f%\x0c\xa2`'
p447
tp448
Rp449
sS'misc'
p450
(dp451
S'tid'
p452
I13
sS'idxs'
p453
(dp454
S'units1'
p455
(lp456
I13
asS'units2'
p457
(lp458
I13
asS'batch_size'
p459
(lp460
I13
assS'cmd'
p461
(S'domain_attachment'
p462
S'FMinIter_Domain'
p463
tp464
sS'vals'
p465
(dp466
g455
(lp467
F30.0
asg457
(lp468
F0.0
asg459
(lp469
I0
assS'workdir'
p470
NssS'exp_key'
p471
NsS'owner'
p472
NsS'state'
p473
I2
sS'version'
p474
I0
sS'result'
p475
(dp476
S'status'
p477
S'ok'
p478
sS'loss'
p479
F0.0093
ssg452
I13
sS'spec'
p480
Nsa(dp481
S'refresh_time'
p482
g10
(S'\x07\xe3\n\x0f\x05):\x02\x0bp'
p483
tp484
Rp485
sS'book_time'
p486
g10
(S'\x07\xe3\n\x0f\x05\x06\x1e\n\x9a\xd8'
p487
tp488
Rp489
sS'misc'
p490
(dp491
S'tid'
p492
I14
sS'idxs'
p493
(dp494
S'units1'
p495
(lp496
I14
asS'units2'
p497
(lp498
I14
asS'batch_size'
p499
(lp500
I14
assS'cmd'
p501
(S'domain_attachment'
p502
S'FMinIter_Domain'
p503
tp504
sS'vals'
p505
(dp506
g495
(lp507
F15.0
asg497
(lp508
F60.0
asg499
(lp509
I0
assS'workdir'
p510
NssS'state'
p511
I2
sg492
I14
sS'exp_key'
p512
NsS'version'
p513
I0
sS'result'
p514
(dp515
S'status'
p516
S'ok'
p517
sS'loss'
p518
F0.0175
ssS'owner'
p519
NsS'spec'
p520
Nsa(dp521
S'refresh_time'
p522
g10
(S'\x07\xe3\n\x0f\x06\x15\x14\x06U\x18'
p523
tp524
Rp525
sS'book_time'
p526
g10
(S'\x07\xe3\n\x0f\x05):\x02U\xa8'
p527
tp528
Rp529
sS'misc'
p530
(dp531
S'tid'
p532
I15
sS'idxs'
p533
(dp534
S'units1'
p535
(lp536
I15
asS'units2'
p537
(lp538
I15
asS'batch_size'
p539
(lp540
I15
assS'cmd'
p541
(S'domain_attachment'
p542
S'FMinIter_Domain'
p543
tp544
sS'vals'
p545
(dp546
g535
(lp547
F90.0
asg537
(lp548
F65.0
asg539
(lp549
I0
assS'workdir'
p550
NssS'exp_key'
p551
NsS'owner'
p552
NsS'state'
p553
I2
sS'version'
p554
I0
sS'result'
p555
(dp556
S'status'
p557
S'ok'
p558
sS'loss'
p559
F0.0096
ssg532
I15
sS'spec'
p560
Nsa(dp561
S'refresh_time'
p562
g10
(S'\x07\xe3\n\x0f\x068!\x00\x07\xd0'
p563
tp564
Rp565
sS'book_time'
p566
g10
(S'\x07\xe3\n\x0f\x06\x15\x14\x06\xae\xf0'
p567
tp568
Rp569
sS'misc'
p570
(dp571
S'tid'
p572
I16
sS'idxs'
p573
(dp574
S'units1'
p575
(lp576
I16
asS'units2'
p577
(lp578
I16
asS'batch_size'
p579
(lp580
I16
assS'cmd'
p581
(S'domain_attachment'
p582
S'FMinIter_Domain'
p583
tp584
sS'vals'
p585
(dp586
g575
(lp587
F10.0
asg577
(lp588
F90.0
asg579
(lp589
I0
assS'workdir'
p590
NssS'state'
p591
I2
sg572
I16
sS'exp_key'
p592
NsS'version'
p593
I0
sS'result'
p594
(dp595
S'status'
p596
S'ok'
p597
sS'loss'
p598
F0.0237
ssS'owner'
p599
NsS'spec'
p600
Nsa(dp601
S'refresh_time'
p602
g10
(S'\x07\xe3\n\x0f\x07\x1e;\x0b\xea\xc8'
p603
tp604
Rp605
sS'book_time'
p606
g10
(S'\x07\xe3\n\x0f\x068!\x00]\xc0'
p607
tp608
Rp609
sS'misc'
p610
(dp611
S'tid'
p612
I17
sS'idxs'
p613
(dp614
S'units1'
p615
(lp616
I17
asS'units2'
p617
(lp618
I17
asS'batch_size'
p619
(lp620
I17
assS'cmd'
p621
(S'domain_attachment'
p622
S'FMinIter_Domain'
p623
tp624
sS'vals'
p625
(dp626
g615
(lp627
F0.0
asg617
(lp628
F45.0
asg619
(lp629
I0
assS'workdir'
p630
NssS'exp_key'
p631
NsS'owner'
p632
NsS'state'
p633
I2
sS'version'
p634
I0
sS'result'
p635
(dp636
S'status'
p637
S'ok'
p638
sS'loss'
p639
F0.0368
ssg612
I17
sS'spec'
p640
Nsa(dp641
S'refresh_time'
p642
g10
(S'\x07\xe3\n\x0f\x08\x06\x0c\x07\xb0\xc0'
p643
tp644
Rp645
sS'book_time'
p646
g10
(S'\x07\xe3\n\x0f\x07\x1e;\x0cD\xa0'
p647
tp648
Rp649
sS'misc'
p650
(dp651
S'tid'
p652
I18
sS'idxs'
p653
(dp654
S'units1'
p655
(lp656
I18
asS'units2'
p657
(lp658
I18
asS'batch_size'
p659
(lp660
I18
assS'cmd'
p661
(S'domain_attachment'
p662
S'FMinIter_Domain'
p663
tp664
sS'vals'
p665
(dp666
g655
(lp667
F5.0
asg657
(lp668
F35.0
asg659
(lp669
I0
assS'workdir'
p670
NssS'state'
p671
I2
sg652
I18
sS'exp_key'
p672
NsS'version'
p673
I0
sS'result'
p674
(dp675
S'status'
p676
S'ok'
p677
sS'loss'
p678
F0.0368
ssS'owner'
p679
NsS'spec'
p680
Nsa(dp681
S'refresh_time'
p682
g10
(S'\x07\xe3\n\x0f\x08)\x06\x0b/H'
p683
tp684
Rp685
sS'book_time'
p686
g10
(S'\x07\xe3\n\x0f\x08\x06\x0c\x08"\x08'
p687
tp688
Rp689
sS'misc'
p690
(dp691
S'tid'
p692
I19
sS'idxs'
p693
(dp694
S'units1'
p695
(lp696
I19
asS'units2'
p697
(lp698
I19
asS'batch_size'
p699
(lp700
I19
assS'cmd'
p701
(S'domain_attachment'
p702
S'FMinIter_Domain'
p703
tp704
sS'vals'
p705
(dp706
g695
(lp707
F20.0
asg697
(lp708
F40.0
asg699
(lp709
I0
assS'workdir'
p710
NssS'exp_key'
p711
NsS'owner'
p712
NsS'state'
p713
I2
sS'version'
p714
I0
sS'result'
p715
(dp716
S'status'
p717
S'ok'
p718
sS'loss'
p719
F0.0144
ssg692
I19
sS'spec'
p720
Nsa(dp721
S'refresh_time'
p722
g10
(S'\x07\xe3\n\x0f\t\x11\x02\x0f\x17H'
p723
tp724
Rp725
sS'book_time'
p726
g10
(S'\x07\xe3\n\x0f\x08)\x06\x0b\x90\xf0'
p727
tp728
Rp729
sS'misc'
p730
(dp731
S'tid'
p732
I20
sS'idxs'
p733
(dp734
S'units1'
p735
(lp736
I20
asS'units2'
p737
(lp738
I20
asS'batch_size'
p739
(lp740
I20
assS'cmd'
p741
(S'domain_attachment'
p742
S'FMinIter_Domain'
p743
tp744
sS'vals'
p745
(dp746
g735
(lp747
F65.0
asg737
(lp748
F65.0
asg739
(lp749
I0
assS'workdir'
p750
NssS'state'
p751
I2
sg732
I20
sS'exp_key'
p752
NsS'version'
p753
I0
sS'result'
p754
(dp755
S'status'
p756
S'ok'
p757
sS'loss'
p758
F0.0084
ssS'owner'
p759
NsS'spec'
p760
Nsa(dp761
S'refresh_time'
p762
g10
(S'\x07\xe3\n\x0f\t3\x00\x05,8'
p763
tp764
Rp765
sS'book_time'
p766
g10
(S'\x07\xe3\n\x0f\t\x11\x03\x006\xb0'
p767
tp768
Rp769
sS'misc'
p770
(dp771
S'tid'
p772
I21
sS'idxs'
p773
(dp774
S'units1'
p775
(lp776
I21
asS'units2'
p777
(lp778
I21
asS'batch_size'
p779
(lp780
I21
assS'cmd'
p781
(S'domain_attachment'
p782
S'FMinIter_Domain'
p783
tp784
sS'vals'
p785
(dp786
g775
(lp787
F5.0
asg777
(lp788
F15.0
asg779
(lp789
I0
assS'workdir'
p790
NssS'exp_key'
p791
NsS'owner'
p792
NsS'state'
p793
I2
sS'version'
p794
I0
sS'result'
p795
(dp796
S'status'
p797
S'ok'
p798
sS'loss'
p799
F0.0368
ssg772
I21
sS'spec'
p800
Nsa(dp801
S'refresh_time'
p802
g10
(S'\x07\xe3\n\x0f\n\x1d3\r\x07\xf0'
p803
tp804
Rp805
sS'book_time'
p806
g10
(S'\x07\xe3\n\x0f\t3\x00\x05\xa1h'
p807
tp808
Rp809
sS'misc'
p810
(dp811
S'tid'
p812
I22
sS'idxs'
p813
(dp814
S'units1'
p815
(lp816
I22
asS'units2'
p817
(lp818
I22
asS'batch_size'
p819
(lp820
I22
assS'cmd'
p821
(S'domain_attachment'
p822
S'FMinIter_Domain'
p823
tp824
sS'vals'
p825
(dp826
g815
(lp827
F90.0
asg817
(lp828
F50.0
asg819
(lp829
I0
assS'workdir'
p830
NssS'state'
p831
I2
sg812
I22
sS'exp_key'
p832
NsS'version'
p833
I0
sS'result'
p834
(dp835
S'status'
p836
S'ok'
p837
sS'loss'
p838
F0.0096
ssS'owner'
p839
NsS'spec'
p840
Nsa(dp841
S'refresh_time'
p842
g10
(S'\x07\xe3\n\x0f\x0b\x06\x12\x00\xa7\xf8'
p843
tp844
Rp845
sS'book_time'
p846
g10
(S'\x07\xe3\n\x0f\n\x1d3\rm\x80'
p847
tp848
Rp849
sS'misc'
p850
(dp851
S'tid'
p852
I23
sS'idxs'
p853
(dp854
S'units1'
p855
(lp856
I23
asS'units2'
p857
(lp858
I23
asS'batch_size'
p859
(lp860
I23
assS'cmd'
p861
(S'domain_attachment'
p862
S'FMinIter_Domain'
p863
tp864
sS'vals'
p865
(dp866
g855
(lp867
F45.0
asg857
(lp868
F35.0
asg859
(lp869
I0
assS'workdir'
p870
NssS'exp_key'
p871
NsS'owner'
p872
NsS'state'
p873
I2
sS'version'
p874
I0
sS'result'
p875
(dp876
S'status'
p877
S'ok'
p878
sS'loss'
p879
F0.0123
ssg852
I23
sS'spec'
p880
Nsa(dp881
S'refresh_time'
p882
g10
(S'\x07\xe3\n\x0f\x0b*\x0b\t\xb4`'
p883
tp884
Rp885
sS'book_time'
p886
g10
(S'\x07\xe3\n\x0f\x0b\x06\x12\x01\x15X'
p887
tp888
Rp889
sS'misc'
p890
(dp891
S'tid'
p892
I24
sS'idxs'
p893
(dp894
S'units1'
p895
(lp896
I24
asS'units2'
p897
(lp898
I24
asS'batch_size'
p899
(lp900
I24
assS'cmd'
p901
(S'domain_attachment'
p902
S'FMinIter_Domain'
p903
tp904
sS'vals'
p905
(dp906
g895
(lp907
F15.0
asg897
(lp908
F90.0
asg899
(lp909
I0
assS'workdir'
p910
NssS'state'
p911
I2
sg892
I24
sS'exp_key'
p912
NsS'version'
p913
I0
sS'result'
p914
(dp915
S'status'
p916
S'ok'
p917
sS'loss'
p918
F0.0175
ssS'owner'
p919
NsS'spec'
p920
Nsa(dp921
S'refresh_time'
p922
g10
(S'\x07\xe3\n\x0f\x0c\x12\x11\t\x148'
p923
tp924
Rp925
sS'book_time'
p926
g10
(S'\x07\xe3\n\x0f\x0b*\x0b\n%\xa8'
p927
tp928
Rp929
sS'misc'
p930
(dp931
S'tid'
p932
I25
sS'idxs'
p933
(dp934
S'units1'
p935
(lp936
I25
asS'units2'
p937
(lp938
I25
asS'batch_size'
p939
(lp940
I25
assS'cmd'
p941
(S'domain_attachment'
p942
S'FMinIter_Domain'
p943
tp944
sS'vals'
p945
(dp946
g935
(lp947
F40.0
asg937
(lp948
F35.0
asg939
(lp949
I0
assS'workdir'
p950
NssS'exp_key'
p951
NsS'owner'
p952
NsS'state'
p953
I2
sS'version'
p954
I0
sS'result'
p955
(dp956
S'status'
p957
S'ok'
p958
sS'loss'
p959
F0.0087
ssg932
I25
sS'spec'
p960
Nsa(dp961
S'refresh_time'
p962
g10
(S'\x07\xe3\n\x0f\x0c7"\x065\xd8'
p963
tp964
Rp965
sS'book_time'
p966
g10
(S'\x07\xe3\n\x0f\x0c\x12\x11\t}\xb0'
p967
tp968
Rp969
sS'misc'
p970
(dp971
S'tid'
p972
I26
sS'idxs'
p973
(dp974
S'units1'
p975
(lp976
I26
asS'units2'
p977
(lp978
I26
asS'batch_size'
p979
(lp980
I26
assS'cmd'
p981
(S'domain_attachment'
p982
S'FMinIter_Domain'
p983
tp984
sS'vals'
p985
(dp986
g975
(lp987
F60.0
asg977
(lp988
F85.0
asg979
(lp989
I0
assS'workdir'
p990
NssS'state'
p991
I2
sg972
I26
sS'exp_key'
p992
NsS'version'
p993
I0
sS'result'
p994
(dp995
S'status'
p996
S'ok'
p997
sS'loss'
p998
F0.0072
ssS'owner'
p999
NsS'spec'
p1000
Nsa(dp1001
S'refresh_time'
p1002
g10
(S'\x07\xe3\n\x0f\r\x1e5\x02Y\x90'
p1003
tp1004
Rp1005
sS'book_time'
p1006
g10
(S'\x07\xe3\n\x0f\x0c7"\x06\xba\xa8'
p1007
tp1008
Rp1009
sS'misc'
p1010
(dp1011
S'tid'
p1012
I27
sS'idxs'
p1013
(dp1014
S'units1'
p1015
(lp1016
I27
asS'units2'
p1017
(lp1018
I27
asS'batch_size'
p1019
(lp1020
I27
assS'cmd'
p1021
(S'domain_attachment'
p1022
S'FMinIter_Domain'
p1023
tp1024
sS'vals'
p1025
(dp1026
g1015
(lp1027
F10.0
asg1017
(lp1028
F55.0
asg1019
(lp1029
I0
assS'workdir'
p1030
NssS'exp_key'
p1031
NsS'owner'
p1032
NsS'state'
p1033
I2
sS'version'
p1034
I0
sS'result'
p1035
(dp1036
S'status'
p1037
S'ok'
p1038
sS'loss'
p1039
F0.0236
ssg1012
I27
sS'spec'
p1040
Nsa(dp1041
S'refresh_time'
p1042
g10
(S'\x07\xe3\n\x0f\x0e\t\x0e\x07O\x18'
p1043
tp1044
Rp1045
sS'book_time'
p1046
g10
(S'\x07\xe3\n\x0f\r\x1e5\x02\xbf '
p1047
tp1048
Rp1049
sS'misc'
p1050
(dp1051
S'tid'
p1052
I28
sS'idxs'
p1053
(dp1054
S'units1'
p1055
(lp1056
I28
asS'units2'
p1057
(lp1058
I28
asS'batch_size'
p1059
(lp1060
I28
assS'cmd'
p1061
(S'domain_attachment'
p1062
S'FMinIter_Domain'
p1063
tp1064
sS'vals'
p1065
(dp1066
g1055
(lp1067
F95.0
asg1057
(lp1068
F45.0
asg1059
(lp1069
I0
assS'workdir'
p1070
NssS'state'
p1071
I2
sg1052
I28
sS'exp_key'
p1072
NsS'version'
p1073
I0
sS'result'
p1074
(dp1075
S'status'
p1076
S'ok'
p1077
sS'loss'
p1078
F0.0073
ssS'owner'
p1079
NsS'spec'
p1080
Nsa(dp1081
S'refresh_time'
p1082
g10
(S'\x07\xe3\n\x0f\x0e-\x0e\tC\x18'
p1083
tp1084
Rp1085
sS'book_time'
p1086
g10
(S'\x07\xe3\n\x0f\x0e\t\x0e\x07\xb8\x90'
p1087
tp1088
Rp1089
sS'misc'
p1090
(dp1091
S'tid'
p1092
I29
sS'idxs'
p1093
(dp1094
S'units1'
p1095
(lp1096
I29
asS'units2'
p1097
(lp1098
I29
asS'batch_size'
p1099
(lp1100
I29
assS'cmd'
p1101
(S'domain_attachment'
p1102
S'FMinIter_Domain'
p1103
tp1104
sS'vals'
p1105
(dp1106
g1095
(lp1107
F50.0
asg1097
(lp1108
F70.0
asg1099
(lp1109
I0
assS'workdir'
p1110
NssS'exp_key'
p1111
NsS'owner'
p1112
NsS'state'
p1113
I2
sS'version'
p1114
I0
sS'result'
p1115
(dp1116
S'status'
p1117
S'ok'
p1118
sS'loss'
p1119
F0.0069
ssg1092
I29
sS'spec'
p1120
Nsa(dp1121
S'refresh_time'
p1122
g10
(S'\x07\xe3\n\x0f\x0f\x15\x19\x00\x88\xb8'
p1123
tp1124
Rp1125
sS'book_time'
p1126
g10
(S'\x07\xe3\n\x0f\x0e-\x0e\t\xc7\xe8'
p1127
tp1128
Rp1129
sS'misc'
p1130
(dp1131
S'tid'
p1132
I30
sS'idxs'
p1133
(dp1134
S'units1'
p1135
(lp1136
I30
asS'units2'
p1137
(lp1138
I30
asS'batch_size'
p1139
(lp1140
I30
assS'cmd'
p1141
(S'domain_attachment'
p1142
S'FMinIter_Domain'
p1143
tp1144
sS'vals'
p1145
(dp1146
g1135
(lp1147
F60.0
asg1137
(lp1148
F40.0
asg1139
(lp1149
I0
assS'workdir'
p1150
NssS'state'
p1151
I2
sg1132
I30
sS'exp_key'
p1152
NsS'version'
p1153
I0
sS'result'
p1154
(dp1155
S'status'
p1156
S'ok'
p1157
sS'loss'
p1158
F0.0074
ssS'owner'
p1159
NsS'spec'
p1160
Nsa(dp1161
S'refresh_time'
p1162
g10
(S'\x07\xe3\n\x0f\x0f8$\x073\xc0'
p1163
tp1164
Rp1165
sS'book_time'
p1166
g10
(S'\x07\xe3\n\x0f\x0f\x15\x19\x00\xfa\x00'
p1167
tp1168
Rp1169
sS'misc'
p1170
(dp1171
S'tid'
p1172
I31
sS'idxs'
p1173
(dp1174
S'units1'
p1175
(lp1176
I31
asS'units2'
p1177
(lp1178
I31
asS'batch_size'
p1179
(lp1180
I31
assS'cmd'
p1181
(S'domain_attachment'
p1182
S'FMinIter_Domain'
p1183
tp1184
sS'vals'
p1185
(dp1186
g1175
(lp1187
F25.0
asg1177
(lp1188
F25.0
asg1179
(lp1189
I0
assS'workdir'
p1190
NssS'exp_key'
p1191
NsS'owner'
p1192
NsS'state'
p1193
I2
sS'version'
p1194
I0
sS'result'
p1195
(dp1196
S'status'
p1197
S'ok'
p1198
sS'loss'
p1199
F0.0111
ssg1172
I31
sS'spec'
p1200
Nsa(dp1201
S'refresh_time'
p1202
g10
(S'\x07\xe3\n\x0f\x10\x1f \x02\xce\xc0'
p1203
tp1204
Rp1205
sS'book_time'
p1206
g10
(S'\x07\xe3\n\x0f\x0f8$\x07\xb8\x90'
p1207
tp1208
Rp1209
sS'misc'
p1210
(dp1211
S'tid'
p1212
I32
sS'idxs'
p1213
(dp1214
S'units1'
p1215
(lp1216
I32
asS'units2'
p1217
(lp1218
I32
asS'batch_size'
p1219
(lp1220
I32
assS'cmd'
p1221
(S'domain_attachment'
p1222
S'FMinIter_Domain'
p1223
tp1224
sS'vals'
p1225
(dp1226
g1215
(lp1227
F0.0
asg1217
(lp1228
F75.0
asg1219
(lp1229
I0
assS'workdir'
p1230
NssS'state'
p1231
I2
sg1212
I32
sS'exp_key'
p1232
NsS'version'
p1233
I0
sS'result'
p1234
(dp1235
S'status'
p1236
S'ok'
p1237
sS'loss'
p1238
F0.0368
ssS'owner'
p1239
NsS'spec'
p1240
Nsa(dp1241
S'refresh_time'
p1242
g10
(S'\x07\xe3\n\x0f\x11\x07.\x03\xe00'
p1243
tp1244
Rp1245
sS'book_time'
p1246
g10
(S'\x07\xe3\n\x0f\x10\x1f \x03K\xc0'
p1247
tp1248
Rp1249
sS'misc'
p1250
(dp1251
S'tid'
p1252
I33
sS'idxs'
p1253
(dp1254
S'units1'
p1255
(lp1256
I33
asS'units2'
p1257
(lp1258
I33
asS'batch_size'
p1259
(lp1260
I33
assS'cmd'
p1261
(S'domain_attachment'
p1262
S'FMinIter_Domain'
p1263
tp1264
sS'vals'
p1265
(dp1266
g1255
(lp1267
F25.0
asg1257
(lp1268
F80.0
asg1259
(lp1269
I0
assS'workdir'
p1270
NssS'exp_key'
p1271
NsS'owner'
p1272
NsS'state'
p1273
I2
sS'version'
p1274
I0
sS'result'
p1275
(dp1276
S'status'
p1277
S'ok'
p1278
sS'loss'
p1279
F0.0114
ssg1252
I33
sS'spec'
p1280
Nsa(dp1281
S'refresh_time'
p1282
g10
(S'\x07\xe3\n\x0f\x111\x14\x0b\xfah'
p1283
tp1284
Rp1285
sS'book_time'
p1286
g10
(S'\x07\xe3\n\x0f\x11\x07.\x04a\x18'
p1287
tp1288
Rp1289
sS'misc'
p1290
(dp1291
S'tid'
p1292
I34
sS'idxs'
p1293
(dp1294
S'units1'
p1295
(lp1296
I34
asS'units2'
p1297
(lp1298
I34
asS'batch_size'
p1299
(lp1300
I34
assS'cmd'
p1301
(S'domain_attachment'
p1302
S'FMinIter_Domain'
p1303
tp1304
sS'vals'
p1305
(dp1306
g1295
(lp1307
F95.0
asg1297
(lp1308
F75.0
asg1299
(lp1309
I0
assS'workdir'
p1310
NssS'state'
p1311
I2
sg1292
I34
sS'exp_key'
p1312
NsS'version'
p1313
I0
sS'result'
p1314
(dp1315
S'status'
p1316
S'ok'
p1317
sS'loss'
p1318
F0.0071
ssS'owner'
p1319
NsS'spec'
p1320
Nsa(dp1321
S'refresh_time'
p1322
g10
(S'\x07\xe3\n\x0f\x12\x1a\x1c\t\x148'
p1323
tp1324
Rp1325
sS'book_time'
p1326
g10
(S'\x07\xe3\n\x0f\x111\x14\x0c\x83 '
p1327
tp1328
Rp1329
sS'misc'
p1330
(dp1331
S'tid'
p1332
I35
sS'idxs'
p1333
(dp1334
S'units1'
p1335
(lp1336
I35
asS'units2'
p1337
(lp1338
I35
asS'batch_size'
p1339
(lp1340
I35
assS'cmd'
p1341
(S'domain_attachment'
p1342
S'FMinIter_Domain'
p1343
tp1344
sS'vals'
p1345
(dp1346
g1335
(lp1347
F55.0
asg1337
(lp1348
F30.0
asg1339
(lp1349
I0
assS'workdir'
p1350
NssS'exp_key'
p1351
NsS'owner'
p1352
NsS'state'
p1353
I2
sS'version'
p1354
I0
sS'result'
p1355
(dp1356
S'status'
p1357
S'ok'
p1358
sS'loss'
p1359
F0.0096
ssg1332
I35
sS'spec'
p1360
Nsa(dp1361
S'refresh_time'
p1362
g10
(S'\x07\xe3\n\x0f\x13\x01;\x0c\xf4h'
p1363
tp1364
Rp1365
sS'book_time'
p1366
g10
(S'\x07\xe3\n\x0f\x12\x1a\x1c\t\x95 '
p1367
tp1368
Rp1369
sS'misc'
p1370
(dp1371
S'tid'
p1372
I36
sS'idxs'
p1373
(dp1374
S'units1'
p1375
(lp1376
I36
asS'units2'
p1377
(lp1378
I36
asS'batch_size'
p1379
(lp1380
I36
assS'cmd'
p1381
(S'domain_attachment'
p1382
S'FMinIter_Domain'
p1383
tp1384
sS'vals'
p1385
(dp1386
g1375
(lp1387
F30.0
asg1377
(lp1388
F55.0
asg1379
(lp1389
I0
assS'workdir'
p1390
NssS'state'
p1391
I2
sg1372
I36
sS'exp_key'
p1392
NsS'version'
p1393
I0
sS'result'
p1394
(dp1395
S'status'
p1396
S'ok'
p1397
sS'loss'
p1398
F0.0089
ssS'owner'
p1399
NsS'spec'
p1400
Nsa(dp1401
S'refresh_time'
p1402
g10
(S'\x07\xe3\n\x0f\x13&\x00\r\x90\xa8'
p1403
tp1404
Rp1405
sS'book_time'
p1406
g10
(S'\x07\xe3\n\x0f\x13\x01;\r\x81\x08'
p1407
tp1408
Rp1409
sS'misc'
p1410
(dp1411
S'tid'
p1412
I37
sS'idxs'
p1413
(dp1414
S'units1'
p1415
(lp1416
I37
asS'units2'
p1417
(lp1418
I37
asS'batch_size'
p1419
(lp1420
I37
assS'cmd'
p1421
(S'domain_attachment'
p1422
S'FMinIter_Domain'
p1423
tp1424
sS'vals'
p1425
(dp1426
g1415
(lp1427
F75.0
asg1417
(lp1428
F0.0
asg1419
(lp1429
I0
assS'workdir'
p1430
NssS'exp_key'
p1431
NsS'owner'
p1432
NsS'state'
p1433
I2
sS'version'
p1434
I0
sS'result'
p1435
(dp1436
S'status'
p1437
S'ok'
p1438
sS'loss'
p1439
F0.0097
ssg1412
I37
sS'spec'
p1440
Nsa(dp1441
S'refresh_time'
p1442
g10
(S'\x07\xe3\n\x0f\x14\x137\x0e\xbdp'
p1443
tp1444
Rp1445
sS'book_time'
p1446
g10
(S'\x07\xe3\n\x0f\x13&\x00\x0e%\x18'
p1447
tp1448
Rp1449
sS'misc'
p1450
(dp1451
S'tid'
p1452
I38
sS'idxs'
p1453
(dp1454
S'units1'
p1455
(lp1456
I38
asS'units2'
p1457
(lp1458
I38
asS'batch_size'
p1459
(lp1460
I38
assS'cmd'
p1461
(S'domain_attachment'
p1462
S'FMinIter_Domain'
p1463
tp1464
sS'vals'
p1465
(dp1466
g1455
(lp1467
F90.0
asg1457
(lp1468
F95.0
asg1459
(lp1469
I0
assS'workdir'
p1470
NssS'state'
p1471
I2
sg1452
I38
sS'exp_key'
p1472
NsS'version'
p1473
I0
sS'result'
p1474
(dp1475
S'status'
p1476
S'ok'
p1477
sS'loss'
p1478
F0.0096
ssS'owner'
p1479
NsS'spec'
p1480
Nsa(dp1481
S'refresh_time'
p1482
g10
(S'\x07\xe3\n\x0f\x14::\t\x18 '
p1483
tp1484
Rp1485
sS'book_time'
p1486
g10
(S'\x07\xe3\n\x0f\x14\x138\x00\x17p'
p1487
tp1488
Rp1489
sS'misc'
p1490
(dp1491
S'tid'
p1492
I39
sS'idxs'
p1493
(dp1494
S'units1'
p1495
(lp1496
I39
asS'units2'
p1497
(lp1498
I39
asS'batch_size'
p1499
(lp1500
I39
assS'cmd'
p1501
(S'domain_attachment'
p1502
S'FMinIter_Domain'
p1503
tp1504
sS'vals'
p1505
(dp1506
g1495
(lp1507
F75.0
asg1497
(lp1508
F75.0
asg1499
(lp1509
I0
assS'workdir'
p1510
NssS'exp_key'
p1511
NsS'owner'
p1512
NsS'state'
p1513
I2
sS'version'
p1514
I0
sS'result'
p1515
(dp1516
S'status'
p1517
S'ok'
p1518
sS'loss'
p1519
F0.0096
ssg1492
I39
sS'spec'
p1520
Nsa(dp1521
S'refresh_time'
p1522
g10
(S'\x07\xe3\n\x0f\x15"6\x0b\x89 '
p1523
tp1524
Rp1525
sS'book_time'
p1526
g10
(S'\x07\xe3\n\x0f\x14::\t\xac\x90'
p1527
tp1528
Rp1529
sS'misc'
p1530
(dp1531
S'tid'
p1532
I40
sS'idxs'
p1533
(dp1534
S'units1'
p1535
(lp1536
I40
asS'units2'
p1537
(lp1538
I40
asS'batch_size'
p1539
(lp1540
I40
assS'cmd'
p1541
(S'domain_attachment'
p1542
S'FMinIter_Domain'
p1543
tp1544
sS'vals'
p1545
(dp1546
g1535
(lp1547
F20.0
asg1537
(lp1548
F95.0
asg1539
(lp1549
I0
assS'workdir'
p1550
NssS'state'
p1551
I2
sg1532
I40
sS'exp_key'
p1552
NsS'version'
p1553
I0
sS'result'
p1554
(dp1555
S'status'
p1556
S'ok'
p1557
sS'loss'
p1558
F0.0137
ssS'owner'
p1559
NsS'spec'
p1560
Nsa(dp1561
S'refresh_time'
p1562
g10
(S'\x07\xe3\n\x0f\x16\n\x12\r} '
p1563
tp1564
Rp1565
sS'book_time'
p1566
g10
(S'\x07\xe3\n\x0f\x15"6\x0c\x1d\x90'
p1567
tp1568
Rp1569
sS'misc'
p1570
(dp1571
S'tid'
p1572
I41
sS'idxs'
p1573
(dp1574
S'units1'
p1575
(lp1576
I41
asS'units2'
p1577
(lp1578
I41
asS'batch_size'
p1579
(lp1580
I41
assS'cmd'
p1581
(S'domain_attachment'
p1582
S'FMinIter_Domain'
p1583
tp1584
sS'vals'
p1585
(dp1586
g1575
(lp1587
F50.0
asg1577
(lp1588
F50.0
asg1579
(lp1589
I0
assS'workdir'
p1590
NssS'exp_key'
p1591
NsS'owner'
p1592
NsS'state'
p1593
I2
sS'version'
p1594
I0
sS'result'
p1595
(dp1596
S'status'
p1597
S'ok'
p1598
sS'loss'
p1599
F0.0073
ssg1572
I41
sS'spec'
p1600
Nsa(dp1601
S'refresh_time'
p1602
g10
(S'\x07\xe3\n\x0f\x160\x1a\x06\xa38'
p1603
tp1604
Rp1605
sS'book_time'
p1606
g10
(S'\x07\xe3\n\x0f\x16\n\x12\x0e\x05\xd8'
p1607
tp1608
Rp1609
sS'misc'
p1610
(dp1611
S'tid'
p1612
I42
sS'idxs'
p1613
(dp1614
S'units1'
p1615
(lp1616
I42
asS'units2'
p1617
(lp1618
I42
asS'batch_size'
p1619
(lp1620
I42
assS'cmd'
p1621
(S'domain_attachment'
p1622
S'FMinIter_Domain'
p1623
tp1624
sS'vals'
p1625
(dp1626
g1615
(lp1627
F70.0
asg1617
(lp1628
F20.0
asg1619
(lp1629
I0
assS'workdir'
p1630
NssS'state'
p1631
I2
sg1612
I42
sS'exp_key'
p1632
NsS'version'
p1633
I0
sS'result'
p1634
(dp1635
S'status'
p1636
S'ok'
p1637
sS'loss'
p1638
F0.0077
ssS'owner'
p1639
NsS'spec'
p1640
Nsa(dp1641
S'refresh_time'
p1642
g10
(S'\x07\xe3\n\x0f\x17\x18.\x03\xd0\x90'
p1643
tp1644
Rp1645
sS'book_time'
p1646
g10
(S'\x07\xe3\n\x0f\x160\x1a\x07K0'
p1647
tp1648
Rp1649
sS'misc'
p1650
(dp1651
S'tid'
p1652
I43
sS'idxs'
p1653
(dp1654
S'units1'
p1655
(lp1656
I43
asS'units2'
p1657
(lp1658
I43
asS'batch_size'
p1659
(lp1660
I43
assS'cmd'
p1661
(S'domain_attachment'
p1662
S'FMinIter_Domain'
p1663
tp1664
sS'vals'
p1665
(dp1666
g1655
(lp1667
F45.0
asg1657
(lp1668
F40.0
asg1659
(lp1669
I0
assS'workdir'
p1670
NssS'exp_key'
p1671
NsS'owner'
p1672
NsS'state'
p1673
I2
sS'version'
p1674
I0
sS'result'
p1675
(dp1676
S'status'
p1677
S'ok'
p1678
sS'loss'
p1679
F0.0123
ssg1652
I43
sS'spec'
p1680
Nsa(dp1681
S'refresh_time'
p1682
g10
(S'\x07\xe3\n\x10\x00\x02\x02\x08\x93P'
p1683
tp1684
Rp1685
sS'book_time'
p1686
g10
(S'\x07\xe3\n\x0f\x17\x18.\x04l\xd0'
p1687
tp1688
Rp1689
sS'misc'
p1690
(dp1691
S'tid'
p1692
I44
sS'idxs'
p1693
(dp1694
S'units1'
p1695
(lp1696
I44
asS'units2'
p1697
(lp1698
I44
asS'batch_size'
p1699
(lp1700
I44
assS'cmd'
p1701
(S'domain_attachment'
p1702
S'FMinIter_Domain'
p1703
tp1704
sS'vals'
p1705
(dp1706
g1695
(lp1707
F70.0
asg1697
(lp1708
F15.0
asg1699
(lp1709
I0
assS'workdir'
p1710
NssS'state'
p1711
I2
sg1692
I44
sS'exp_key'
p1712
NsS'version'
p1713
I0
sS'result'
p1714
(dp1715
S'status'
p1716
S'ok'
p1717
sS'loss'
p1718
F0.0078
ssS'owner'
p1719
NsS'spec'
p1720
Nsa(dp1721
S'refresh_time'
p1722
g10
(S'\x07\xe3\n\x10\x00$\x1a\x0e\x01\xf0'
p1723
tp1724
Rp1725
sS'book_time'
p1726
g10
(S'\x07\xe3\n\x10\x00\x02\x02\t7`'
p1727
tp1728
Rp1729
sS'misc'
p1730
(dp1731
S'tid'
p1732
I45
sS'idxs'
p1733
(dp1734
S'units1'
p1735
(lp1736
I45
asS'units2'
p1737
(lp1738
I45
asS'batch_size'
p1739
(lp1740
I45
assS'cmd'
p1741
(S'domain_attachment'
p1742
S'FMinIter_Domain'
p1743
tp1744
sS'vals'
p1745
(dp1746
g1735
(lp1747
F0.0
asg1737
(lp1748
F15.0
asg1739
(lp1749
I0
assS'workdir'
p1750
NssS'exp_key'
p1751
NsS'owner'
p1752
NsS'state'
p1753
I2
sS'version'
p1754
I0
sS'result'
p1755
(dp1756
S'status'
p1757
S'ok'
p1758
sS'loss'
p1759
F0.0368
ssg1732
I45
sS'spec'
p1760
Nsa(dp1761
S'refresh_time'
p1762
g10
(S'\x07\xe3\n\x10\x01\r0\x01~\xd0'
p1763
tp1764
Rp1765
sS'book_time'
p1766
g10
(S'\x07\xe3\n\x10\x00$\x1a\x0e\xad\xd0'
p1767
tp1768
Rp1769
sS'misc'
p1770
(dp1771
S'tid'
p1772
I46
sS'idxs'
p1773
(dp1774
S'units1'
p1775
(lp1776
I46
asS'units2'
p1777
(lp1778
I46
asS'batch_size'
p1779
(lp1780
I46
assS'cmd'
p1781
(S'domain_attachment'
p1782
S'FMinIter_Domain'
p1783
tp1784
sS'vals'
p1785
(dp1786
g1775
(lp1787
F70.0
asg1777
(lp1788
F30.0
asg1779
(lp1789
I0
assS'workdir'
p1790
NssS'state'
p1791
I2
sg1772
I46
sS'exp_key'
p1792
NsS'version'
p1793
I0
sS'result'
p1794
(dp1795
S'status'
p1796
S'ok'
p1797
sS'loss'
p1798
F0.0077
ssS'owner'
p1799
NsS'spec'
p1800
Nsa(dp1801
S'refresh_time'
p1802
g10
(S'\x07\xe3\n\x10\x011 \x05\xcc`'
p1803
tp1804
Rp1805
sS'book_time'
p1806
g10
(S'\x07\xe3\n\x10\x01\r0\x02"\xe0'
p1807
tp1808
Rp1809
sS'misc'
p1810
(dp1811
S'tid'
p1812
I47
sS'idxs'
p1813
(dp1814
S'units1'
p1815
(lp1816
I47
asS'units2'
p1817
(lp1818
I47
asS'batch_size'
p1819
(lp1820
I47
assS'cmd'
p1821
(S'domain_attachment'
p1822
S'FMinIter_Domain'
p1823
tp1824
sS'vals'
p1825
(dp1826
g1815
(lp1827
F20.0
asg1817
(lp1828
F35.0
asg1819
(lp1829
I0
assS'workdir'
p1830
NssS'exp_key'
p1831
NsS'owner'
p1832
NsS'state'
p1833
I2
sS'version'
p1834
I0
sS'result'
p1835
(dp1836
S'status'
p1837
S'ok'
p1838
sS'loss'
p1839
F0.0144
ssg1812
I47
sS'spec'
p1840
Nsa(dp1841
S'refresh_time'
p1842
g10
(S'\x07\xe3\n\x10\x02\x1a\x05\x05\xe3\xd0'
p1843
tp1844
Rp1845
sS'book_time'
p1846
g10
(S'\x07\xe3\n\x10\x011 \x06pp'
p1847
tp1848
Rp1849
sS'misc'
p1850
(dp1851
S'tid'
p1852
I48
sS'idxs'
p1853
(dp1854
S'units1'
p1855
(lp1856
I48
asS'units2'
p1857
(lp1858
I48
asS'batch_size'
p1859
(lp1860
I48
assS'cmd'
p1861
(S'domain_attachment'
p1862
S'FMinIter_Domain'
p1863
tp1864
sS'vals'
p1865
(dp1866
g1855
(lp1867
F55.0
asg1857
(lp1868
F80.0
asg1859
(lp1869
I0
assS'workdir'
p1870
NssS'state'
p1871
I2
sg1852
I48
sS'exp_key'
p1872
NsS'version'
p1873
I0
sS'result'
p1874
(dp1875
S'status'
p1876
S'ok'
p1877
sS'loss'
p1878
F0.0086
ssS'owner'
p1879
NsS'spec'
p1880
Nsa(dp1881
S'refresh_time'
p1882
g10
(S'\x07\xe3\n\x10\x03\x019\x06\xc6`'
p1883
tp1884
Rp1885
sS'book_time'
p1886
g10
(S'\x07\xe3\n\x10\x02\x1a\x05\x06\x97\x80'
p1887
tp1888
Rp1889
sS'misc'
p1890
(dp1891
S'tid'
p1892
I49
sS'idxs'
p1893
(dp1894
S'units1'
p1895
(lp1896
I49
asS'units2'
p1897
(lp1898
I49
asS'batch_size'
p1899
(lp1900
I49
assS'cmd'
p1901
(S'domain_attachment'
p1902
S'FMinIter_Domain'
p1903
tp1904
sS'vals'
p1905
(dp1906
g1895
(lp1907
F45.0
asg1897
(lp1908
F20.0
asg1899
(lp1909
I0
assS'workdir'
p1910
NssS'exp_key'
p1911
NsS'owner'
p1912
NsS'state'
p1913
I2
sS'version'
p1914
I0
sS'result'
p1915
(dp1916
S'status'
p1917
S'ok'
p1918
sS'loss'
p1919
F0.0121
ssg1892
I49
sS'spec'
p1920
Nsa(dp1921
S'refresh_time'
p1922
g10
(S"\x07\xe3\n\x10\x03'\x15\x0c5\x00"
p1923
tp1924
Rp1925
sS'book_time'
p1926
g10
(S'\x07\xe3\n\x10\x03\x019\x07r@'
p1927
tp1928
Rp1929
sS'misc'
p1930
(dp1931
S'tid'
p1932
I50
sS'idxs'
p1933
(dp1934
S'units1'
p1935
(lp1936
I50
asS'units2'
p1937
(lp1938
I50
asS'batch_size'
p1939
(lp1940
I50
assS'cmd'
p1941
(S'domain_attachment'
p1942
S'FMinIter_Domain'
p1943
tp1944
sS'vals'
p1945
(dp1946
g1935
(lp1947
F95.0
asg1937
(lp1948
F15.0
asg1939
(lp1949
I0
assS'workdir'
p1950
NssS'state'
p1951
I2
sg1932
I50
sS'exp_key'
p1952
NsS'version'
p1953
I0
sS'result'
p1954
(dp1955
S'status'
p1956
S'ok'
p1957
sS'loss'
p1958
F0.0084
ssS'owner'
p1959
NsS'spec'
p1960
Nsa(dp1961
S'refresh_time'
p1962
g10
(S'\x07\xe3\n\x10\x04\x0e\x01\x05\x86\x10'
p1963
tp1964
Rp1965
sS'book_time'
p1966
g10
(S"\x07\xe3\n\x10\x03'\x15\x0c\xec\x98"
p1967
tp1968
Rp1969
sS'misc'
p1970
(dp1971
S'tid'
p1972
I51
sS'idxs'
p1973
(dp1974
S'units1'
p1975
(lp1976
I51
asS'units2'
p1977
(lp1978
I51
asS'batch_size'
p1979
(lp1980
I51
assS'cmd'
p1981
(S'domain_attachment'
p1982
S'FMinIter_Domain'
p1983
tp1984
sS'vals'
p1985
(dp1986
g1975
(lp1987
F50.0
asg1977
(lp1988
F45.0
asg1979
(lp1989
I0
assS'workdir'
p1990
NssS'exp_key'
p1991
NsS'owner'
p1992
NsS'state'
p1993
I2
sS'version'
p1994
I0
sS'result'
p1995
(dp1996
S'status'
p1997
S'ok'
p1998
sS'loss'
p1999
F0.0075
ssg1972
I51
sS'spec'
p2000
Nsa(dp2001
S'refresh_time'
p2002
g10
(S'\x07\xe3\n\x10\x04\x1f\x1b\x05W0'
p2003
tp2004
Rp2005
sS'book_time'
p2006
g10
(S'\x07\xe3\n\x10\x04\x0e\x01\x05\xf7X'
p2007
tp2008
Rp2009
sS'misc'
p2010
(dp2011
S'tid'
p2012
I52
sS'idxs'
p2013
(dp2014
S'units1'
p2015
(lp2016
I52
asS'units2'
p2017
(lp2018
I52
asS'batch_size'
p2019
(lp2020
I52
assS'cmd'
p2021
(S'domain_attachment'
p2022
S'FMinIter_Domain'
p2023
tp2024
sS'vals'
p2025
(dp2026
g2015
(lp2027
F25.0
asg2017
(lp2028
F85.0
asg2019
(lp2029
I0
assS'workdir'
p2030
NssS'state'
p2031
I2
sg2012
I52
sS'exp_key'
p2032
NsS'version'
p2033
I0
sS'result'
p2034
(dp2035
S'status'
p2036
S'ok'
p2037
sS'loss'
p2038
F0.0113
ssS'owner'
p2039
NsS'spec'
p2040
Nsa(dp2041
S'refresh_time'
p2042
g10
(S'\x07\xe3\n\x10\x042#\n)\x90'
p2043
tp2044
Rp2045
sS'book_time'
p2046
g10
(S'\x07\xe3\n\x10\x04\x1f\x1b\x05\xa5P'
p2047
tp2048
Rp2049
sS'misc'
p2050
(dp2051
S'tid'
p2052
I53
sS'idxs'
p2053
(dp2054
S'units1'
p2055
(lp2056
I53
asS'units2'
p2057
(lp2058
I53
asS'batch_size'
p2059
(lp2060
I53
assS'cmd'
p2061
(S'domain_attachment'
p2062
S'FMinIter_Domain'
p2063
tp2064
sS'vals'
p2065
(dp2066
g2055
(lp2067
F75.0
asg2057
(lp2068
F65.0
asg2059
(lp2069
I0
assS'workdir'
p2070
NssS'exp_key'
p2071
NsS'owner'
p2072
NsS'state'
p2073
I2
sS'version'
p2074
I0
sS'result'
p2075
(dp2076
S'status'
p2077
S'ok'
p2078
sS'loss'
p2079
F0.0083
ssg2052
I53
sS'spec'
p2080
Nsa(dp2081
S'refresh_time'
p2082
g10
(S'\x07\xe3\n\x10\x05\x04\x0c\x0f\x0fx'
p2083
tp2084
Rp2085
sS'book_time'
p2086
g10
(S'\x07\xe3\n\x10\x042#\nh\x10'
p2087
tp2088
Rp2089
sS'misc'
p2090
(dp2091
S'tid'
p2092
I54
sS'idxs'
p2093
(dp2094
S'units1'
p2095
(lp2096
I54
asS'units2'
p2097
(lp2098
I54
asS'batch_size'
p2099
(lp2100
I54
assS'cmd'
p2101
(S'domain_attachment'
p2102
S'FMinIter_Domain'
p2103
tp2104
sS'vals'
p2105
(dp2106
g2095
(lp2107
F0.0
asg2097
(lp2108
F5.0
asg2099
(lp2109
I0
assS'workdir'
p2110
NssS'state'
p2111
I2
sg2092
I54
sS'exp_key'
p2112
NsS'version'
p2113
I0
sS'result'
p2114
(dp2115
S'status'
p2116
S'ok'
p2117
sS'loss'
p2118
F0.0368
ssS'owner'
p2119
NsS'spec'
p2120
Nsa(dp2121
S'refresh_time'
p2122
g10
(S'\x07\xe3\n\x10\x05\x140\x07r@'
p2123
tp2124
Rp2125
sS'book_time'
p2126
g10
(S'\x07\xe3\n\x10\x05\x04\r\x002\xc8'
p2127
tp2128
Rp2129
sS'misc'
p2130
(dp2131
S'tid'
p2132
I55
sS'idxs'
p2133
(dp2134
S'units1'
p2135
(lp2136
I55
asS'units2'
p2137
(lp2138
I55
asS'batch_size'
p2139
(lp2140
I55
assS'cmd'
p2141
(S'domain_attachment'
p2142
S'FMinIter_Domain'
p2143
tp2144
sS'vals'
p2145
(dp2146
g2135
(lp2147
F55.0
asg2137
(lp2148
F50.0
asg2139
(lp2149
I0
assS'workdir'
p2150
NssS'exp_key'
p2151
NsS'owner'
p2152
NsS'state'
p2153
I2
sS'version'
p2154
I0
sS'result'
p2155
(dp2156
S'status'
p2157
S'ok'
p2158
sS'loss'
p2159
F0.0095
ssg2132
I55
sS'spec'
p2160
Nsa(dp2161
S'refresh_time'
p2162
g10
(S"\x07\xe3\n\x10\x05*'\rm\x80"
p2163
tp2164
Rp2165
sS'book_time'
p2166
g10
(S'\x07\xe3\n\x10\x05\x140\x07\xac\xd8'
p2167
tp2168
Rp2169
sS'misc'
p2170
(dp2171
S'tid'
p2172
I56
sS'idxs'
p2173
(dp2174
S'units1'
p2175
(lp2176
I56
asS'units2'
p2177
(lp2178
I56
asS'batch_size'
p2179
(lp2180
I56
assS'cmd'
p2181
(S'domain_attachment'
p2182
S'FMinIter_Domain'
p2183
tp2184
sS'vals'
p2185
(dp2186
g2175
(lp2187
F85.0
asg2177
(lp2188
F65.0
asg2179
(lp2189
I0
assS'workdir'
p2190
NssS'state'
p2191
I2
sg2172
I56
sS'exp_key'
p2192
NsS'version'
p2193
I0
sS'result'
p2194
(dp2195
S'status'
p2196
S'ok'
p2197
sS'loss'
p2198
F0.012
ssS'owner'
p2199
NsS'spec'
p2200
Nsa(dp2201
S'refresh_time'
p2202
g10
(S'\x07\xe3\n\x10\x058!\x08\x12h'
p2203
tp2204
Rp2205
sS'book_time'
p2206
g10
(S"\x07\xe3\n\x10\x05*'\r\xd6\xf8"
p2207
tp2208
Rp2209
sS'misc'
p2210
(dp2211
S'tid'
p2212
I57
sS'idxs'
p2213
(dp2214
S'units1'
p2215
(lp2216
I57
asS'units2'
p2217
(lp2218
I57
asS'batch_size'
p2219
(lp2220
I57
assS'cmd'
p2221
(S'domain_attachment'
p2222
S'FMinIter_Domain'
p2223
tp2224
sS'vals'
p2225
(dp2226
g2215
(lp2227
F5.0
asg2217
(lp2228
F20.0
asg2219
(lp2229
I0
assS'workdir'
p2230
NssS'exp_key'
p2231
NsS'owner'
p2232
NsS'state'
p2233
I2
sS'version'
p2234
I0
sS'result'
p2235
(dp2236
S'status'
p2237
S'ok'
p2238
sS'loss'
p2239
F0.0368
ssg2212
I57
sS'spec'
p2240
Nsa(dp2241
S'refresh_time'
p2242
g10
(S'\x07\xe3\n\x10\x06\n(\t#\xd8'
p2243
tp2244
Rp2245
sS'book_time'
p2246
g10
(S'\x07\xe3\n\x10\x058!\x08X\xb8'
p2247
tp2248
Rp2249
sS'misc'
p2250
(dp2251
S'tid'
p2252
I58
sS'idxs'
p2253
(dp2254
S'units1'
p2255
(lp2256
I58
asS'units2'
p2257
(lp2258
I58
asS'batch_size'
p2259
(lp2260
I58
assS'cmd'
p2261
(S'domain_attachment'
p2262
S'FMinIter_Domain'
p2263
tp2264
sS'vals'
p2265
(dp2266
g2255
(lp2267
F10.0
asg2257
(lp2268
F70.0
asg2259
(lp2269
I0
assS'workdir'
p2270
NssS'state'
p2271
I2
sg2252
I58
sS'exp_key'
p2272
NsS'version'
p2273
I0
sS'result'
p2274
(dp2275
S'status'
p2276
S'ok'
p2277
sS'loss'
p2278
F0.0237
ssS'owner'
p2279
NsS'spec'
p2280
Nsa(dp2281
S'refresh_time'
p2282
g10
(S'\x07\xe3\n\x10\x06\x1b\x04\n\xae`'
p2283
tp2284
Rp2285
sS'book_time'
p2286
g10
(S'\x07\xe3\n\x10\x06\n(\tf@'
p2287
tp2288
Rp2289
sS'misc'
p2290
(dp2291
S'tid'
p2292
I59
sS'idxs'
p2293
(dp2294
S'units1'
p2295
(lp2296
I59
asS'units2'
p2297
(lp2298
I59
asS'batch_size'
p2299
(lp2300
I59
assS'cmd'
p2301
(S'domain_attachment'
p2302
S'FMinIter_Domain'
p2303
tp2304
sS'vals'
p2305
(dp2306
g2295
(lp2307
F45.0
asg2297
(lp2308
F75.0
asg2299
(lp2309
I0
assS'workdir'
p2310
NssS'exp_key'
p2311
NsS'owner'
p2312
NsS'state'
p2313
I2
sS'version'
p2314
I0
sS'result'
p2315
(dp2316
S'status'
p2317
S'ok'
p2318
sS'loss'
p2319
F0.0124
ssg2292
I59
sS'spec'
p2320
Nsa(dp2321
S'refresh_time'
p2322
g10
(S'\x07\xe3\n\x10\x06*6\x07\x95h'
p2323
tp2324
Rp2325
sS'book_time'
p2326
g10
(S'\x07\xe3\n\x10\x06\x1b\x04\x0b#\x90'
p2327
tp2328
Rp2329
sS'misc'
p2330
(dp2331
S'tid'
p2332
I60
sS'idxs'
p2333
(dp2334
S'units1'
p2335
(lp2336
I60
asS'units2'
p2337
(lp2338
I60
asS'batch_size'
p2339
(lp2340
I60
assS'cmd'
p2341
(S'domain_attachment'
p2342
S'FMinIter_Domain'
p2343
tp2344
sS'vals'
p2345
(dp2346
g2335
(lp2347
F30.0
asg2337
(lp2348
F50.0
asg2339
(lp2349
I0
assS'workdir'
p2350
NssS'state'
p2351
I2
sg2332
I60
sS'exp_key'
p2352
NsS'version'
p2353
I0
sS'result'
p2354
(dp2355
S'status'
p2356
S'ok'
p2357
sS'loss'
p2358
F0.0094
ssS'owner'
p2359
NsS'spec'
p2360
Nsa(dp2361
S'refresh_time'
p2362
g10
(S'\x07\xe3\n\x10\x06;\x05\x07^\xb8'
p2363
tp2364
Rp2365
sS'book_time'
p2366
g10
(S'\x07\xe3\n\x10\x06*6\x07\xd3\xe8'
p2367
tp2368
Rp2369
sS'misc'
p2370
(dp2371
S'tid'
p2372
I61
sS'idxs'
p2373
(dp2374
S'units1'
p2375
(lp2376
I61
asS'units2'
p2377
(lp2378
I61
asS'batch_size'
p2379
(lp2380
I61
assS'cmd'
p2381
(S'domain_attachment'
p2382
S'FMinIter_Domain'
p2383
tp2384
sS'vals'
p2385
(dp2386
g2375
(lp2387
F35.0
asg2377
(lp2388
F95.0
asg2379
(lp2389
I0
assS'workdir'
p2390
NssS'exp_key'
p2391
NsS'owner'
p2392
NsS'state'
p2393
I2
sS'version'
p2394
I0
sS'result'
p2395
(dp2396
S'status'
p2397
S'ok'
p2398
sS'loss'
p2399
F0.0103
ssg2372
I61
sS'spec'
p2400
Nsa(dp2401
S'refresh_time'
p2402
g10
(S'\x07\xe3\n\x12\n\x1f\x0b\x04\xf1\xa0'
p2403
tp2404
Rp2405
sS'book_time'
p2406
g10
(S'\x07\xe3\n\x12\n\x08.\x08\x87\x98'
p2407
tp2408
Rp2409
sS'misc'
p2410
(dp2411
S'tid'
p2412
I62
sS'idxs'
p2413
(dp2414
S'units1'
p2415
(lp2416
I62
asS'units2'
p2417
(lp2418
I62
asS'batch_size'
p2419
(lp2420
I62
assS'cmd'
p2421
(S'domain_attachment'
p2422
S'FMinIter_Domain'
p2423
tp2424
sS'vals'
p2425
(dp2426
g2415
(lp2427
F95.0
asg2417
(lp2428
F60.0
asg2419
(lp2429
I0
assS'workdir'
p2430
NssS'state'
p2431
I2
sg2412
I62
sS'exp_key'
p2432
NsS'version'
p2433
I0
sS'result'
p2434
(dp2435
S'status'
p2436
S'ok'
p2437
sS'loss'
p2438
F0.0074
ssS'owner'
p2439
NsS'spec'
p2440
Nsa(dp2441
S'refresh_time'
p2442
g10
(S'\x07\xe3\n\x12\n+6\x03K\xc0'
p2443
tp2444
Rp2445
sS'book_time'
p2446
g10
(S'\x07\xe3\n\x12\n\x1f\x0b\x05;\xd8'
p2447
tp2448
Rp2449
sS'misc'
p2450
(dp2451
S'tid'
p2452
I63
sS'idxs'
p2453
(dp2454
S'units1'
p2455
(lp2456
I63
asS'units2'
p2457
(lp2458
I63
asS'batch_size'
p2459
(lp2460
I63
assS'cmd'
p2461
(S'domain_attachment'
p2462
S'FMinIter_Domain'
p2463
tp2464
sS'vals'
p2465
(dp2466
g2455
(lp2467
F10.0
asg2457
(lp2468
F20.0
asg2459
(lp2469
I0
assS'workdir'
p2470
NssS'exp_key'
p2471
NsS'owner'
p2472
NsS'state'
p2473
I2
sS'version'
p2474
I0
sS'result'
p2475
(dp2476
S'status'
p2477
S'ok'
p2478
sS'loss'
p2479
F0.0236
ssg2452
I63
sS'spec'
p2480
Nsa(dp2481
S'refresh_time'
p2482
g10
(S'\x07\xe3\n\x12\n;\x0e\n\nP'
p2483
tp2484
Rp2485
sS'book_time'
p2486
g10
(S'\x07\xe3\n\x12\n+6\x03\x95\xf8'
p2487
tp2488
Rp2489
sS'misc'
p2490
(dp2491
S'tid'
p2492
I64
sS'idxs'
p2493
(dp2494
S'units1'
p2495
(lp2496
I64
asS'units2'
p2497
(lp2498
I64
asS'batch_size'
p2499
(lp2500
I64
assS'cmd'
p2501
(S'domain_attachment'
p2502
S'FMinIter_Domain'
p2503
tp2504
sS'vals'
p2505
(dp2506
g2495
(lp2507
F40.0
asg2497
(lp2508
F95.0
asg2499
(lp2509
I0
assS'workdir'
p2510
NssS'state'
p2511
I2
sg2492
I64
sS'exp_key'
p2512
NsS'version'
p2513
I0
sS'result'
p2514
(dp2515
S'status'
p2516
S'ok'
p2517
sS'loss'
p2518
F0.0088
ssS'owner'
p2519
NsS'spec'
p2520
Nsa(dp2521
S'refresh_time'
p2522
g10
(S'\x07\xe3\n\x12\x0b\x0b&\x08%\xf0'
p2523
tp2524
Rp2525
sS'book_time'
p2526
g10
(S'\x07\xe3\n\x12\n;\x0e\nXp'
p2527
tp2528
Rp2529
sS'misc'
p2530
(dp2531
S'tid'
p2532
I65
sS'idxs'
p2533
(dp2534
S'units1'
p2535
(lp2536
I65
asS'units2'
p2537
(lp2538
I65
asS'batch_size'
p2539
(lp2540
I65
assS'cmd'
p2541
(S'domain_attachment'
p2542
S'FMinIter_Domain'
p2543
tp2544
sS'vals'
p2545
(dp2546
g2535
(lp2547
F5.0
asg2537
(lp2548
F30.0
asg2539
(lp2549
I0
assS'workdir'
p2550
NssS'exp_key'
p2551
NsS'owner'
p2552
NsS'state'
p2553
I2
sS'version'
p2554
I0
sS'result'
p2555
(dp2556
S'status'
p2557
S'ok'
p2558
sS'loss'
p2559
F0.0368
ssg2532
I65
sS'spec'
p2560
Nsa(dp2561
S'refresh_time'
p2562
g10
(S'\x07\xe3\n\x12\x0b\x1a$\x0e\xecP'
p2563
tp2564
Rp2565
sS'book_time'
p2566
g10
(S'\x07\xe3\n\x12\x0b\x0b&\x08dp'
p2567
tp2568
Rp2569
sS'misc'
p2570
(dp2571
S'tid'
p2572
I66
sS'idxs'
p2573
(dp2574
S'units1'
p2575
(lp2576
I66
asS'units2'
p2577
(lp2578
I66
asS'batch_size'
p2579
(lp2580
I66
assS'cmd'
p2581
(S'domain_attachment'
p2582
S'FMinIter_Domain'
p2583
tp2584
sS'vals'
p2585
(dp2586
g2575
(lp2587
F35.0
asg2577
(lp2588
F50.0
asg2579
(lp2589
I0
assS'workdir'
p2590
NssS'state'
p2591
I2
sg2572
I66
sS'exp_key'
p2592
NsS'version'
p2593
I0
sS'result'
p2594
(dp2595
S'status'
p2596
S'ok'
p2597
sS'loss'
p2598
F0.0093
ssS'owner'
p2599
NsS'spec'
p2600
Nsa(dp2601
S'refresh_time'
p2602
g10
(S'\x07\xe3\n\x12\x0b)\x16\x03\x99\xe0'
p2603
tp2604
Rp2605
sS'book_time'
p2606
g10
(S'\x07\xe3\n\x12\x0b\x1a$\x0f6\x88'
p2607
tp2608
Rp2609
sS'misc'
p2610
(dp2611
S'tid'
p2612
I67
sS'idxs'
p2613
(dp2614
S'units1'
p2615
(lp2616
I67
asS'units2'
p2617
(lp2618
I67
asS'batch_size'
p2619
(lp2620
I67
assS'cmd'
p2621
(S'domain_attachment'
p2622
S'FMinIter_Domain'
p2623
tp2624
sS'vals'
p2625
(dp2626
g2615
(lp2627
F20.0
asg2617
(lp2628
F20.0
asg2619
(lp2629
I0
assS'workdir'
p2630
NssS'exp_key'
p2631
NsS'owner'
p2632
NsS'state'
p2633
I2
sS'version'
p2634
I0
sS'result'
p2635
(dp2636
S'status'
p2637
S'ok'
p2638
sS'loss'
p2639
F0.0143
ssg2612
I67
sS'spec'
p2640
Nsa(dp2641
S'refresh_time'
p2642
g10
(S'\x07\xe3\n\x12\x0b9\x0c\x08\xba`'
p2643
tp2644
Rp2645
sS'book_time'
p2646
g10
(S'\x07\xe3\n\x12\x0b)\x16\x03\xdcH'
p2647
tp2648
Rp2649
sS'misc'
p2650
(dp2651
S'tid'
p2652
I68
sS'idxs'
p2653
(dp2654
S'units1'
p2655
(lp2656
I68
asS'units2'
p2657
(lp2658
I68
asS'batch_size'
p2659
(lp2660
I68
assS'cmd'
p2661
(S'domain_attachment'
p2662
S'FMinIter_Domain'
p2663
tp2664
sS'vals'
p2665
(dp2666
g2655
(lp2667
F55.0
asg2657
(lp2668
F25.0
asg2659
(lp2669
I0
assS'workdir'
p2670
NssS'state'
p2671
I2
sg2652
I68
sS'exp_key'
p2672
NsS'version'
p2673
I0
sS'result'
p2674
(dp2675
S'status'
p2676
S'ok'
p2677
sS'loss'
p2678
F0.01
ssS'owner'
p2679
NsS'spec'
p2680
Nsa(dp2681
S'refresh_time'
p2682
g10
(S'\x07\xe3\n\x12\x0c\x0e\x13\x01cx'
p2683
tp2684
Rp2685
sS'book_time'
p2686
g10
(S'\x07\xe3\n\x12\x0b9\x0c\t\x00\xb0'
p2687
tp2688
Rp2689
sS'misc'
p2690
(dp2691
S'tid'
p2692
I69
sS'idxs'
p2693
(dp2694
S'units1'
p2695
(lp2696
I69
asS'units2'
p2697
(lp2698
I69
asS'batch_size'
p2699
(lp2700
I69
assS'cmd'
p2701
(S'domain_attachment'
p2702
S'FMinIter_Domain'
p2703
tp2704
sS'vals'
p2705
(dp2706
g2695
(lp2707
F65.0
asg2697
(lp2708
F50.0
asg2699
(lp2709
I0
assS'workdir'
p2710
NssS'exp_key'
p2711
NsS'owner'
p2712
NsS'state'
p2713
I2
sS'version'
p2714
I0
sS'result'
p2715
(dp2716
S'status'
p2717
S'ok'
p2718
sS'loss'
p2719
F0.0089
ssg2692
I69
sS'spec'
p2720
Nsa(dp2721
S'refresh_time'
p2722
g10
(S'\x07\xe3\n\x12\x0c\x1a5\t\xa0\xd8'
p2723
tp2724
Rp2725
sS'book_time'
p2726
g10
(S'\x07\xe3\n\x12\x0c\x0e\x13\x01\xc9\x08'
p2727
tp2728
Rp2729
sS'misc'
p2730
(dp2731
S'tid'
p2732
I70
sS'idxs'
p2733
(dp2734
S'units1'
p2735
(lp2736
I70
asS'units2'
p2737
(lp2738
I70
asS'batch_size'
p2739
(lp2740
I70
assS'cmd'
p2741
(S'domain_attachment'
p2742
S'FMinIter_Domain'
p2743
tp2744
sS'vals'
p2745
(dp2746
g2735
(lp2747
F5.0
asg2737
(lp2748
F65.0
asg2739
(lp2749
I0
assS'workdir'
p2750
NssS'state'
p2751
I2
sg2732
I70
sS'exp_key'
p2752
NsS'version'
p2753
I0
sS'result'
p2754
(dp2755
S'status'
p2756
S'ok'
p2757
sS'loss'
p2758
F0.0368
ssS'owner'
p2759
NsS'spec'
p2760
Nsa(dp2761
S'refresh_time'
p2762
g10
(S'\x07\xe3\n\x12\x0c2\t\x00a\xa8'
p2763
tp2764
Rp2765
sS'book_time'
p2766
g10
(S'\x07\xe3\n\x12\x0c\x1a5\t\xf6\xc8'
p2767
tp2768
Rp2769
sS'misc'
p2770
(dp2771
S'tid'
p2772
I71
sS'idxs'
p2773
(dp2774
S'units1'
p2775
(lp2776
I71
asS'units2'
p2777
(lp2778
I71
asS'batch_size'
p2779
(lp2780
I71
assS'cmd'
p2781
(S'domain_attachment'
p2782
S'FMinIter_Domain'
p2783
tp2784
sS'vals'
p2785
(dp2786
g2775
(lp2787
F85.0
asg2777
(lp2788
F80.0
asg2779
(lp2789
I0
assS'workdir'
p2790
NssS'exp_key'
p2791
NsS'owner'
p2792
NsS'state'
p2793
I2
sS'version'
p2794
I0
sS'result'
p2795
(dp2796
S'status'
p2797
S'ok'
p2798
sS'loss'
p2799
F0.0113
ssg2772
I71
sS'spec'
p2800
Nsa(dp2801
S'refresh_time'
p2802
g10
(S'\x07\xe3\n\x12\r\x08\x1e\x04\xa3\x80'
p2803
tp2804
Rp2805
sS'book_time'
p2806
g10
(S'\x07\xe3\n\x12\x0c2\t\x00\xb3\xb0'
p2807
tp2808
Rp2809
sS'misc'
p2810
(dp2811
S'tid'
p2812
I72
sS'idxs'
p2813
(dp2814
S'units1'
p2815
(lp2816
I72
asS'units2'
p2817
(lp2818
I72
asS'batch_size'
p2819
(lp2820
I72
assS'cmd'
p2821
(S'domain_attachment'
p2822
S'FMinIter_Domain'
p2823
tp2824
sS'vals'
p2825
(dp2826
g2815
(lp2827
F75.0
asg2817
(lp2828
F35.0
asg2819
(lp2829
I0
assS'workdir'
p2830
NssS'state'
p2831
I2
sg2812
I72
sS'exp_key'
p2832
NsS'version'
p2833
I0
sS'result'
p2834
(dp2835
S'status'
p2836
S'ok'
p2837
sS'loss'
p2838
F0.0082
ssS'owner'
p2839
NsS'spec'
p2840
Nsa(dp2841
S'refresh_time'
p2842
g10
(S'\x07\xe3\n\x12\r\x157\x0f&\xe8'
p2843
tp2844
Rp2845
sS'book_time'
p2846
g10
(S'\x07\xe3\n\x12\r\x08\x1e\x04\xe9\xd0'
p2847
tp2848
Rp2849
sS'misc'
p2850
(dp2851
S'tid'
p2852
I73
sS'idxs'
p2853
(dp2854
S'units1'
p2855
(lp2856
I73
asS'units2'
p2857
(lp2858
I73
asS'batch_size'
p2859
(lp2860
I73
assS'cmd'
p2861
(S'domain_attachment'
p2862
S'FMinIter_Domain'
p2863
tp2864
sS'vals'
p2865
(dp2866
g2855
(lp2867
F25.0
asg2857
(lp2868
F45.0
asg2859
(lp2869
I0
assS'workdir'
p2870
NssS'exp_key'
p2871
NsS'owner'
p2872
NsS'state'
p2873
I2
sS'version'
p2874
I0
sS'result'
p2875
(dp2876
S'status'
p2877
S'ok'
p2878
sS'loss'
p2879
F0.0107
ssg2852
I73
sS'spec'
p2880
Nsa(dp2881
S'refresh_time'
p2882
g10
(S'\x07\xe3\n\x12\r"*\x0f6\x88'
p2883
tp2884
Rp2885
sS'book_time'
p2886
g10
(S'\x07\xe3\n\x12\r\x158\x00.\xe0'
p2887
tp2888
Rp2889
sS'misc'
p2890
(dp2891
S'tid'
p2892
I74
sS'idxs'
p2893
(dp2894
S'units1'
p2895
(lp2896
I74
asS'units2'
p2897
(lp2898
I74
asS'batch_size'
p2899
(lp2900
I74
assS'cmd'
p2901
(S'domain_attachment'
p2902
S'FMinIter_Domain'
p2903
tp2904
sS'vals'
p2905
(dp2906
g2895
(lp2907
F10.0
asg2897
(lp2908
F75.0
asg2899
(lp2909
I0
assS'workdir'
p2910
NssS'state'
p2911
I2
sg2892
I74
sS'exp_key'
p2912
NsS'version'
p2913
I0
sS'result'
p2914
(dp2915
S'status'
p2916
S'ok'
p2917
sS'loss'
p2918
F0.0237
ssS'owner'
p2919
NsS'spec'
p2920
Nsa(dp2921
S'refresh_time'
p2922
g10
(S'\x07\xe3\n\x12\r4;\x00Y\xd8'
p2923
tp2924
Rp2925
sS'book_time'
p2926
g10
(S'\x07\xe3\n\x12\r"+\x00e\x90'
p2927
tp2928
Rp2929
sS'misc'
p2930
(dp2931
S'tid'
p2932
I75
sS'idxs'
p2933
(dp2934
S'units1'
p2935
(lp2936
I75
asS'units2'
p2937
(lp2938
I75
asS'batch_size'
p2939
(lp2940
I75
assS'cmd'
p2941
(S'domain_attachment'
p2942
S'FMinIter_Domain'
p2943
tp2944
sS'vals'
p2945
(dp2946
g2935
(lp2947
F95.0
asg2937
(lp2948
F20.0
asg2939
(lp2949
I0
assS'workdir'
p2950
NssS'exp_key'
p2951
NsS'owner'
p2952
NsS'state'
p2953
I2
sS'version'
p2954
I0
sS'result'
p2955
(dp2956
S'status'
p2957
S'ok'
p2958
sS'loss'
p2959
F0.008
ssg2932
I75
sS'spec'
p2960
Nsa(dp2961
S'refresh_time'
p2962
g10
(S'\x07\xe3\n\x12\x0e\x08:\x0b\xbf\xd0'
p2963
tp2964
Rp2965
sS'book_time'
p2966
g10
(S'\x07\xe3\n\x12\r4;\x00\xab\xe0'
p2967
tp2968
Rp2969
sS'misc'
p2970
(dp2971
S'tid'
p2972
I76
sS'idxs'
p2973
(dp2974
S'units1'
p2975
(lp2976
I76
asS'units2'
p2977
(lp2978
I76
asS'batch_size'
p2979
(lp2980
I76
assS'cmd'
p2981
(S'domain_attachment'
p2982
S'FMinIter_Domain'
p2983
tp2984
sS'vals'
p2985
(dp2986
g2975
(lp2987
F60.0
asg2977
(lp2988
F50.0
asg2979
(lp2989
I0
assS'workdir'
p2990
NssS'state'
p2991
I2
sg2972
I76
sS'exp_key'
p2992
NsS'version'
p2993
I0
sS'result'
p2994
(dp2995
S'status'
p2996
S'ok'
p2997
sS'loss'
p2998
F0.0077
ssS'owner'
p2999
NsS'spec'
p3000
Nsa(dp3001
S'refresh_time'
p3002
g10
(S'\x07\xe3\n\x12\x0e\x1f&\x0bq\xb0'
p3003
tp3004
Rp3005
sS'book_time'
p3006
g10
(S'\x07\xe3\n\x12\x0e\x08:\x0c\r\xf0'
p3007
tp3008
Rp3009
sS'misc'
p3010
(dp3011
S'tid'
p3012
I77
sS'idxs'
p3013
(dp3014
S'units1'
p3015
(lp3016
I77
asS'units2'
p3017
(lp3018
I77
asS'batch_size'
p3019
(lp3020
I77
assS'cmd'
p3021
(S'domain_attachment'
p3022
S'FMinIter_Domain'
p3023
tp3024
sS'vals'
p3025
(dp3026
g3015
(lp3027
F75.0
asg3017
(lp3028
F100.0
asg3019
(lp3029
I0
assS'workdir'
p3030
NssS'exp_key'
p3031
NsS'owner'
p3032
NsS'state'
p3033
I2
sS'version'
p3034
I0
sS'result'
p3035
(dp3036
S'status'
p3037
S'ok'
p3038
sS'loss'
p3039
F0.0094
ssg3012
I77
sS'spec'
p3040
Nsa(dp3041
S'refresh_time'
p3042
g10
(S'\x07\xe3\n\x12\x0e/\x14\x00\xb7\x98'
p3043
tp3044
Rp3045
sS'book_time'
p3046
g10
(S'\x07\xe3\n\x12\x0e\x1f&\x0b\xcfp'
p3047
tp3048
Rp3049
sS'misc'
p3050
(dp3051
S'tid'
p3052
I78
sS'idxs'
p3053
(dp3054
S'units1'
p3055
(lp3056
I78
asS'units2'
p3057
(lp3058
I78
asS'batch_size'
p3059
(lp3060
I78
assS'cmd'
p3061
(S'domain_attachment'
p3062
S'FMinIter_Domain'
p3063
tp3064
sS'vals'
p3065
(dp3066
g3055
(lp3067
F65.0
asg3057
(lp3068
F30.0
asg3059
(lp3069
I0
assS'workdir'
p3070
NssS'state'
p3071
I2
sg3052
I78
sS'exp_key'
p3072
NsS'version'
p3073
I0
sS'result'
p3074
(dp3075
S'status'
p3076
S'ok'
p3077
sS'loss'
p3078
F0.0093
ssS'owner'
p3079
NsS'spec'
p3080
Nsa(dp3081
S'refresh_time'
p3082
g10
(S'\x07\xe3\n\x12\x0f\x01\x02\x00\xc3P'
p3083
tp3084
Rp3085
sS'book_time'
p3086
g10
(S'\x07\xe3\n\x12\x0e/\x14\x01\r\x88'
p3087
tp3088
Rp3089
sS'misc'
p3090
(dp3091
S'tid'
p3092
I79
sS'idxs'
p3093
(dp3094
S'units1'
p3095
(lp3096
I79
asS'units2'
p3097
(lp3098
I79
asS'batch_size'
p3099
(lp3100
I79
assS'cmd'
p3101
(S'domain_attachment'
p3102
S'FMinIter_Domain'
p3103
tp3104
sS'vals'
p3105
(dp3106
g3095
(lp3107
F10.0
asg3097
(lp3108
F80.0
asg3099
(lp3109
I0
assS'workdir'
p3110
NssS'exp_key'
p3111
NsS'owner'
p3112
NsS'state'
p3113
I2
sS'version'
p3114
I0
sS'result'
p3115
(dp3116
S'status'
p3117
S'ok'
p3118
sS'loss'
p3119
F0.0237
ssg3092
I79
sS'spec'
p3120
Nsa(dp3121
S'refresh_time'
p3122
g10
(S'\x07\xe3\n\x12\x0f\x0e9\x07\x8d\x98'
p3123
tp3124
Rp3125
sS'book_time'
p3126
g10
(S'\x07\xe3\n\x12\x0f\x01\x02\x01\x1d('
p3127
tp3128
Rp3129
sS'misc'
p3130
(dp3131
S'tid'
p3132
I80
sS'idxs'
p3133
(dp3134
S'units1'
p3135
(lp3136
I80
asS'units2'
p3137
(lp3138
I80
asS'batch_size'
p3139
(lp3140
I80
assS'cmd'
p3141
(S'domain_attachment'
p3142
S'FMinIter_Domain'
p3143
tp3144
sS'vals'
p3145
(dp3146
g3135
(lp3147
F15.0
asg3137
(lp3148
F95.0
asg3139
(lp3149
I0
assS'workdir'
p3150
NssS'state'
p3151
I2
sg3132
I80
sS'exp_key'
p3152
NsS'version'
p3153
I0
sS'result'
p3154
(dp3155
S'status'
p3156
S'ok'
p3157
sS'loss'
p3158
F0.0176
ssS'owner'
p3159
NsS'spec'
p3160
Nsa(dp3161
S'refresh_time'
p3162
g10
(S'\x07\xe3\n\x12\x0f\x1b0\x0eL('
p3163
tp3164
Rp3165
sS'book_time'
p3166
g10
(S'\x07\xe3\n\x12\x0f\x0e9\x08\x16P'
p3167
tp3168
Rp3169
sS'misc'
p3170
(dp3171
S'tid'
p3172
I81
sS'idxs'
p3173
(dp3174
S'units1'
p3175
(lp3176
I81
asS'units2'
p3177
(lp3178
I81
asS'batch_size'
p3179
(lp3180
I81
assS'cmd'
p3181
(S'domain_attachment'
p3182
S'FMinIter_Domain'
p3183
tp3184
sS'vals'
p3185
(dp3186
g3175
(lp3187
F10.0
asg3177
(lp3188
F45.0
asg3179
(lp3189
I0
assS'workdir'
p3190
NssS'exp_key'
p3191
NsS'owner'
p3192
NsS'state'
p3193
I2
sS'version'
p3194
I0
sS'result'
p3195
(dp3196
S'status'
p3197
S'ok'
p3198
sS'loss'
p3199
F0.0236
ssg3172
I81
sS'spec'
p3200
Nsa(dp3201
S'refresh_time'
p3202
g10
(S'\x07\xe3\n\x12\x0f,\x07\x00\xd6\xd8'
p3203
tp3204
Rp3205
sS'book_time'
p3206
g10
(S'\x07\xe3\n\x12\x0f\x1b0\x0e\x9e0'
p3207
tp3208
Rp3209
sS'misc'
p3210
(dp3211
S'tid'
p3212
I82
sS'idxs'
p3213
(dp3214
S'units1'
p3215
(lp3216
I82
asS'units2'
p3217
(lp3218
I82
asS'batch_size'
p3219
(lp3220
I82
assS'cmd'
p3221
(S'domain_attachment'
p3222
S'FMinIter_Domain'
p3223
tp3224
sS'vals'
p3225
(dp3226
g3215
(lp3227
F70.0
asg3217
(lp3228
F5.0
asg3219
(lp3229
I0
assS'workdir'
p3230
NssS'state'
p3231
I2
sg3212
I82
sS'exp_key'
p3232
NsS'version'
p3233
I0
sS'result'
p3234
(dp3235
S'status'
p3236
S'ok'
p3237
sS'loss'
p3238
F0.0077
ssS'owner'
p3239
NsS'spec'
p3240
Nsa(dp3241
S'refresh_time'
p3242
g10
(S'\x07\xe3\n\x12\x0f9;\x0e\xd8\xc8'
p3243
tp3244
Rp3245
sS'book_time'
p3246
g10
(S'\x07\xe3\n\x12\x0f,\x07\x01[\xa8'
p3247
tp3248
Rp3249
sS'misc'
p3250
(dp3251
S'tid'
p3252
I83
sS'idxs'
p3253
(dp3254
S'units1'
p3255
(lp3256
I83
asS'units2'
p3257
(lp3258
I83
asS'batch_size'
p3259
(lp3260
I83
assS'cmd'
p3261
(S'domain_attachment'
p3262
S'FMinIter_Domain'
p3263
tp3264
sS'vals'
p3265
(dp3266
g3255
(lp3267
F35.0
asg3257
(lp3268
F15.0
asg3259
(lp3269
I0
assS'workdir'
p3270
NssS'exp_key'
p3271
NsS'owner'
p3272
NsS'state'
p3273
I2
sS'version'
p3274
I0
sS'result'
p3275
(dp3276
S'status'
p3277
S'ok'
p3278
sS'loss'
p3279
F0.0099
ssg3252
I83
sS'spec'
p3280
Nsa(dp3281
S'refresh_time'
p3282
g10
(S'\x07\xe3\n\x12\x10\x0e$\x04\xe9\xd0'
p3283
tp3284
Rp3285
sS'book_time'
p3286
g10
(S'\x07\xe3\n\x12\x0f9;\x0f*\xd0'
p3287
tp3288
Rp3289
sS'misc'
p3290
(dp3291
S'tid'
p3292
I84
sS'idxs'
p3293
(dp3294
S'units1'
p3295
(lp3296
I84
asS'units2'
p3297
(lp3298
I84
asS'batch_size'
p3299
(lp3300
I84
assS'cmd'
p3301
(S'domain_attachment'
p3302
S'FMinIter_Domain'
p3303
tp3304
sS'vals'
p3305
(dp3306
g3295
(lp3307
F50.0
asg3297
(lp3308
F90.0
asg3299
(lp3309
I0
assS'workdir'
p3310
NssS'state'
p3311
I2
sg3292
I84
sS'exp_key'
p3312
NsS'version'
p3313
I0
sS'result'
p3314
(dp3315
S'status'
p3316
S'ok'
p3317
sS'loss'
p3318
F0.0072
ssS'owner'
p3319
NsS'spec'
p3320
Nsa(dp3321
S'refresh_time'
p3322
g10
(S'\x07\xe3\n\x12\x10#5\x03\x1c\xe0'
p3323
tp3324
Rp3325
sS'book_time'
p3326
g10
(S'\x07\xe3\n\x12\x10\x0e$\x05;\xd8'
p3327
tp3328
Rp3329
sS'misc'
p3330
(dp3331
S'tid'
p3332
I85
sS'idxs'
p3333
(dp3334
S'units1'
p3335
(lp3336
I85
asS'units2'
p3337
(lp3338
I85
asS'batch_size'
p3339
(lp3340
I85
assS'cmd'
p3341
(S'domain_attachment'
p3342
S'FMinIter_Domain'
p3343
tp3344
sS'vals'
p3345
(dp3346
g3335
(lp3347
F85.0
asg3337
(lp3348
F60.0
asg3339
(lp3349
I0
assS'workdir'
p3350
NssS'exp_key'
p3351
NsS'owner'
p3352
NsS'state'
p3353
I2
sS'version'
p3354
I0
sS'result'
p3355
(dp3356
S'status'
p3357
S'ok'
p3358
sS'loss'
p3359
F0.0086
ssg3332
I85
sS'spec'
p3360
Nsa(dp3361
S'refresh_time'
p3362
g10
(S'\x07\xe3\n\x12\x10;\x19\x05,8'
p3363
tp3364
Rp3365
sS'book_time'
p3366
g10
(S'\x07\xe3\n\x12\x10#5\x03k\x00'
p3367
tp3368
Rp3369
sS'misc'
p3370
(dp3371
S'tid'
p3372
I86
sS'idxs'
p3373
(dp3374
S'units1'
p3375
(lp3376
I86
asS'units2'
p3377
(lp3378
I86
asS'batch_size'
p3379
(lp3380
I86
assS'cmd'
p3381
(S'domain_attachment'
p3382
S'FMinIter_Domain'
p3383
tp3384
sS'vals'
p3385
(dp3386
g3375
(lp3387
F90.0
asg3377
(lp3388
F75.0
asg3379
(lp3389
I0
assS'workdir'
p3390
NssS'state'
p3391
I2
sg3372
I86
sS'exp_key'
p3392
NsS'version'
p3393
I0
sS'result'
p3394
(dp3395
S'status'
p3396
S'ok'
p3397
sS'loss'
p3398
F0.0095
ssS'owner'
p3399
NsS'spec'
p3400
Nsa(dp3401
S'refresh_time'
p3402
g10
(S'\x07\xe3\n\x12\x11\x12 \x01o0'
p3403
tp3404
Rp3405
sS'book_time'
p3406
g10
(S'\x07\xe3\n\x12\x10;\x19\x05\x8d\xe0'
p3407
tp3408
Rp3409
sS'misc'
p3410
(dp3411
S'tid'
p3412
I87
sS'idxs'
p3413
(dp3414
S'units1'
p3415
(lp3416
I87
asS'units2'
p3417
(lp3418
I87
asS'batch_size'
p3419
(lp3420
I87
assS'cmd'
p3421
(S'domain_attachment'
p3422
S'FMinIter_Domain'
p3423
tp3424
sS'vals'
p3425
(dp3426
g3415
(lp3427
F100.0
asg3417
(lp3428
F15.0
asg3419
(lp3429
I0
assS'workdir'
p3430
NssS'exp_key'
p3431
NsS'owner'
p3432
NsS'state'
p3433
I2
sS'version'
p3434
I0
sS'result'
p3435
(dp3436
S'status'
p3437
S'ok'
p3438
sS'loss'
p3439
F0.0077
ssg3412
I87
sS'spec'
p3440
Nsa(dp3441
S'refresh_time'
p3442
g10
(S'\x07\xe3\n\x12\x11"\x13\t\xb4`'
p3443
tp3444
Rp3445
sS'book_time'
p3446
g10
(S'\x07\xe3\n\x12\x11\x12 \x01\xc9\x08'
p3447
tp3448
Rp3449
sS'misc'
p3450
(dp3451
S'tid'
p3452
I88
sS'idxs'
p3453
(dp3454
S'units1'
p3455
(lp3456
I88
asS'units2'
p3457
(lp3458
I88
asS'batch_size'
p3459
(lp3460
I88
assS'cmd'
p3461
(S'domain_attachment'
p3462
S'FMinIter_Domain'
p3463
tp3464
sS'vals'
p3465
(dp3466
g3455
(lp3467
F30.0
asg3457
(lp3468
F90.0
asg3459
(lp3469
I0
assS'workdir'
p3470
NssS'state'
p3471
I2
sg3452
I88
sS'exp_key'
p3472
NsS'version'
p3473
I0
sS'result'
p3474
(dp3475
S'status'
p3476
S'ok'
p3477
sS'loss'
p3478
F0.0089
ssS'owner'
p3479
NsS'spec'
p3480
Nsa(dp3481
S'refresh_time'
p3482
g10
(S'\x07\xe3\n\x12\x111\x11\x06I`'
p3483
tp3484
Rp3485
sS'book_time'
p3486
g10
(S'\x07\xe3\n\x12\x11"\x13\n\x0e8'
p3487
tp3488
Rp3489
sS'misc'
p3490
(dp3491
S'tid'
p3492
I89
sS'idxs'
p3493
(dp3494
S'units1'
p3495
(lp3496
I89
asS'units2'
p3497
(lp3498
I89
asS'batch_size'
p3499
(lp3500
I89
assS'cmd'
p3501
(S'domain_attachment'
p3502
S'FMinIter_Domain'
p3503
tp3504
sS'vals'
p3505
(dp3506
g3495
(lp3507
F45.0
asg3497
(lp3508
F30.0
asg3499
(lp3509
I0
assS'workdir'
p3510
NssS'exp_key'
p3511
NsS'owner'
p3512
NsS'state'
p3513
I2
sS'version'
p3514
I0
sS'result'
p3515
(dp3516
S'status'
p3517
S'ok'
p3518
sS'loss'
p3519
F0.0122
ssg3492
I89
sS'spec'
p3520
Nsa(dp3521
S'refresh_time'
p3522
g10
(S'\x07\xe3\n\x12\x12\x0b\x1b\x01\xd0\xd8'
p3523
tp3524
Rp3525
sS'book_time'
p3526
g10
(S'\x07\xe3\n\x12\x111\x11\x06\x9fP'
p3527
tp3528
Rp3529
sS'misc'
p3530
(dp3531
S'tid'
p3532
I90
sS'idxs'
p3533
(dp3534
S'units1'
p3535
(lp3536
I90
asS'units2'
p3537
(lp3538
I90
asS'batch_size'
p3539
(lp3540
I90
assS'cmd'
p3541
(S'domain_attachment'
p3542
S'FMinIter_Domain'
p3543
tp3544
sS'vals'
p3545
(dp3546
g3535
(lp3547
F90.0
asg3537
(lp3548
F60.0
asg3539
(lp3549
I0
assS'workdir'
p3550
NssS'state'
p3551
I2
sg3532
I90
sS'exp_key'
p3552
NsS'version'
p3553
I0
sS'result'
p3554
(dp3555
S'status'
p3556
S'ok'
p3557
sS'loss'
p3558
F0.0095
ssS'owner'
p3559
NsS'spec'
p3560
Nsa(dp3561
S'refresh_time'
p3562
g10
(S'\x07\xe3\n\x12\x12\x1d\x18\x02\xf1\xe8'
p3563
tp3564
Rp3565
sS'book_time'
p3566
g10
(S'\x07\xe3\n\x12\x12\x0b\x1b\x02&\xc8'
p3567
tp3568
Rp3569
sS'misc'
p3570
(dp3571
S'tid'
p3572
I91
sS'idxs'
p3573
(dp3574
S'units1'
p3575
(lp3576
I91
asS'units2'
p3577
(lp3578
I91
asS'batch_size'
p3579
(lp3580
I91
assS'cmd'
p3581
(S'domain_attachment'
p3582
S'FMinIter_Domain'
p3583
tp3584
sS'vals'
p3585
(dp3586
g3575
(lp3587
F60.0
asg3577
(lp3588
F95.0
asg3579
(lp3589
I0
assS'workdir'
p3590
NssS'exp_key'
p3591
NsS'owner'
p3592
NsS'state'
p3593
I2
sS'version'
p3594
I0
sS'result'
p3595
(dp3596
S'status'
p3597
S'ok'
p3598
sS'loss'
p3599
F0.0081
ssg3572
I91
sS'spec'
p3600
Nsa(dp3601
S'refresh_time'
p3602
g10
(S'\x07\xe3\n\x12\x12.#\t\x1c\x08'
p3603
tp3604
Rp3605
sS'book_time'
p3606
g10
(S'\x07\xe3\n\x12\x12\x1d\x18\x03C\xf0'
p3607
tp3608
Rp3609
sS'misc'
p3610
(dp3611
S'tid'
p3612
I92
sS'idxs'
p3613
(dp3614
S'units1'
p3615
(lp3616
I92
asS'units2'
p3617
(lp3618
I92
asS'batch_size'
p3619
(lp3620
I92
assS'cmd'
p3621
(S'domain_attachment'
p3622
S'FMinIter_Domain'
p3623
tp3624
sS'vals'
p3625
(dp3626
g3615
(lp3627
F55.0
asg3617
(lp3628
F100.0
asg3619
(lp3629
I0
assS'workdir'
p3630
NssS'state'
p3631
I2
sg3612
I92
sS'exp_key'
p3632
NsS'version'
p3633
I0
sS'result'
p3634
(dp3635
S'status'
p3636
S'ok'
p3637
sS'loss'
p3638
F0.0087
ssS'owner'
p3639
NsS'spec'
p3640
Nsa(dp3641
S'refresh_time'
p3642
g10
(S'\x07\xe3\n\x12\x13\x03\x02\x05,8'
p3643
tp3644
Rp3645
sS'book_time'
p3646
g10
(S'\x07\xe3\n\x12\x12.#\tu\xe0'
p3647
tp3648
Rp3649
sS'misc'
p3650
(dp3651
S'tid'
p3652
I93
sS'idxs'
p3653
(dp3654
S'units1'
p3655
(lp3656
I93
asS'units2'
p3657
(lp3658
I93
asS'batch_size'
p3659
(lp3660
I93
assS'cmd'
p3661
(S'domain_attachment'
p3662
S'FMinIter_Domain'
p3663
tp3664
sS'vals'
p3665
(dp3666
g3655
(lp3667
F60.0
asg3657
(lp3668
F10.0
asg3659
(lp3669
I0
assS'workdir'
p3670
NssS'exp_key'
p3671
NsS'owner'
p3672
NsS'state'
p3673
I2
sS'version'
p3674
I0
sS'result'
p3675
(dp3676
S'status'
p3677
S'ok'
p3678
sS'loss'
p3679
F0.0083
ssg3652
I93
sS'spec'
p3680
Nsa(dp3681
S'refresh_time'
p3682
g10
(S'\x07\xe3\n\x12\x13\x0f3\x0cLp'
p3683
tp3684
Rp3685
sS'book_time'
p3686
g10
(S'\x07\xe3\n\x12\x13\x03\x02\x05\x86\x10'
p3687
tp3688
Rp3689
sS'misc'
p3690
(dp3691
S'tid'
p3692
I94
sS'idxs'
p3693
(dp3694
S'units1'
p3695
(lp3696
I94
asS'units2'
p3697
(lp3698
I94
asS'batch_size'
p3699
(lp3700
I94
assS'cmd'
p3701
(S'domain_attachment'
p3702
S'FMinIter_Domain'
p3703
tp3704
sS'vals'
p3705
(dp3706
g3695
(lp3707
F20.0
asg3697
(lp3708
F10.0
asg3699
(lp3709
I0
assS'workdir'
p3710
NssS'state'
p3711
I2
sg3692
I94
sS'exp_key'
p3712
NsS'version'
p3713
I0
sS'result'
p3714
(dp3715
S'status'
p3716
S'ok'
p3717
sS'loss'
p3718
F0.0139
ssS'owner'
p3719
NsS'spec'
p3720
Nsa(dp3721
S'refresh_time'
p3722
g10
(S"\x07\xe3\n\x12\x13'\x1d\x00\x0b\xb8"
p3723
tp3724
Rp3725
sS'book_time'
p3726
g10
(S'\x07\xe3\n\x12\x13\x0f3\x0c\xe0\xe0'
p3727
tp3728
Rp3729
sS'misc'
p3730
(dp3731
S'tid'
p3732
I95
sS'idxs'
p3733
(dp3734
S'units1'
p3735
(lp3736
I95
asS'units2'
p3737
(lp3738
I95
asS'batch_size'
p3739
(lp3740
I95
assS'cmd'
p3741
(S'domain_attachment'
p3742
S'FMinIter_Domain'
p3743
tp3744
sS'vals'
p3745
(dp3746
g3735
(lp3747
F100.0
asg3737
(lp3748
F65.0
asg3739
(lp3749
I0
assS'workdir'
p3750
NssS'exp_key'
p3751
NsS'owner'
p3752
NsS'state'
p3753
I2
sS'version'
p3754
I0
sS'result'
p3755
(dp3756
S'status'
p3757
S'ok'
p3758
sS'loss'
p3759
F0.0068
ssg3732
I95
sS'spec'
p3760
Nsa(dp3761
S'refresh_time'
p3762
g10
(S'\x07\xe3\n\x12\x13:\x02\x07\xe7p'
p3763
tp3764
Rp3765
sS'book_time'
p3766
g10
(S"\x07\xe3\n\x12\x13'\x1d\x00e\x90"
p3767
tp3768
Rp3769
sS'misc'
p3770
(dp3771
S'tid'
p3772
I96
sS'idxs'
p3773
(dp3774
S'units1'
p3775
(lp3776
I96
asS'units2'
p3777
(lp3778
I96
asS'batch_size'
p3779
(lp3780
I96
assS'cmd'
p3781
(S'domain_attachment'
p3782
S'FMinIter_Domain'
p3783
tp3784
sS'vals'
p3785
(dp3786
g3775
(lp3787
F80.0
asg3777
(lp3788
F30.0
asg3779
(lp3789
I0
assS'workdir'
p3790
NssS'state'
p3791
I2
sg3772
I96
sS'exp_key'
p3792
NsS'version'
p3793
I0
sS'result'
p3794
(dp3795
S'status'
p3796
S'ok'
p3797
sS'loss'
p3798
F0.0116
ssS'owner'
p3799
NsS'spec'
p3800
Nsa(dp3801
S'refresh_time'
p3802
g10
(S'\x07\xe3\n\x12\x14\x108\x06\xc2x'
p3803
tp3804
Rp3805
sS'book_time'
p3806
g10
(S'\x07\xe3\n\x12\x13:\x02\x08AH'
p3807
tp3808
Rp3809
sS'misc'
p3810
(dp3811
S'tid'
p3812
I97
sS'idxs'
p3813
(dp3814
S'units1'
p3815
(lp3816
I97
asS'units2'
p3817
(lp3818
I97
asS'batch_size'
p3819
(lp3820
I97
assS'cmd'
p3821
(S'domain_attachment'
p3822
S'FMinIter_Domain'
p3823
tp3824
sS'vals'
p3825
(dp3826
g3815
(lp3827
F75.0
asg3817
(lp3828
F50.0
asg3819
(lp3829
I0
assS'workdir'
p3830
NssS'exp_key'
p3831
NsS'owner'
p3832
NsS'state'
p3833
I2
sS'version'
p3834
I0
sS'result'
p3835
(dp3836
S'status'
p3837
S'ok'
p3838
sS'loss'
p3839
F0.0092
ssg3812
I97
sS'spec'
p3840
Nsa(dp3841
S'refresh_time'
p3842
g10
(S'\x07\xe3\n\x12\x14\x1f"\x07/\xd8'
p3843
tp3844
Rp3845
sS'book_time'
p3846
g10
(S'\x07\xe3\n\x12\x14\x108\x07C`'
p3847
tp3848
Rp3849
sS'misc'
p3850
(dp3851
S'tid'
p3852
I98
sS'idxs'
p3853
(dp3854
S'units1'
p3855
(lp3856
I98
asS'units2'
p3857
(lp3858
I98
asS'batch_size'
p3859
(lp3860
I98
assS'cmd'
p3861
(S'domain_attachment'
p3862
S'FMinIter_Domain'
p3863
tp3864
sS'vals'
p3865
(dp3866
g3855
(lp3867
F5.0
asg3857
(lp3868
F75.0
asg3859
(lp3869
I0
assS'workdir'
p3870
NssS'state'
p3871
I2
sg3852
I98
sS'exp_key'
p3872
NsS'version'
p3873
I0
sS'result'
p3874
(dp3875
S'status'
p3876
S'ok'
p3877
sS'loss'
p3878
F0.0368
ssS'owner'
p3879
NsS'spec'
p3880
Nsa(dp3881
S'refresh_time'
p3882
g10
(S'\x07\xe3\n\x12\x143\x14\x0b\x98\xc0'
p3883
tp3884
Rp3885
sS'book_time'
p3886
g10
(S'\x07\xe3\n\x12\x14\x1f"\x07\xa1 '
p3887
tp3888
Rp3889
sS'misc'
p3890
(dp3891
S'tid'
p3892
I99
sS'idxs'
p3893
(dp3894
S'units1'
p3895
(lp3896
I99
asS'units2'
p3897
(lp3898
I99
asS'batch_size'
p3899
(lp3900
I99
assS'cmd'
p3901
(S'domain_attachment'
p3902
S'FMinIter_Domain'
p3903
tp3904
sS'vals'
p3905
(dp3906
g3895
(lp3907
F70.0
asg3897
(lp3908
F70.0
asg3899
(lp3909
I0
assS'workdir'
p3910
NssS'exp_key'
p3911
NsS'owner'
p3912
NsS'state'
p3913
I2
sS'version'
p3914
I0
sS'result'
p3915
(dp3916
S'status'
p3917
S'ok'
p3918
sS'loss'
p3919
F0.0073
ssg3892
I99
sS'spec'
p3920
Nsa(dp3921
S'refresh_time'
p3922
g10
(S'\x07\xe3\n\x12\x15\x07\x0f\x03< '
p3923
tp3924
Rp3925
sS'book_time'
p3926
g10
(S'\x07\xe3\n\x12\x143\x14\x0b\xfah'
p3927
tp3928
Rp3929
sS'misc'
p3930
(dp3931
S'tid'
p3932
I100
sS'idxs'
p3933
(dp3934
S'units1'
p3935
(lp3936
I100
asS'units2'
p3937
(lp3938
I100
asS'batch_size'
p3939
(lp3940
I100
assS'cmd'
p3941
(S'domain_attachment'
p3942
S'FMinIter_Domain'
p3943
tp3944
sS'vals'
p3945
(dp3946
g3935
(lp3947
F40.0
asg3937
(lp3948
F70.0
asg3939
(lp3949
I0
assS'workdir'
p3950
NssS'state'
p3951
I2
sg3932
I100
sS'exp_key'
p3952
NsS'version'
p3953
I0
sS'result'
p3954
(dp3955
S'status'
p3956
S'ok'
p3957
sS'loss'
p3958
F0.0085
ssS'owner'
p3959
NsS'spec'
p3960
Nsa(dp3961
S'refresh_time'
p3962
g10
(S'\x07\xe3\n\x12\x15\x15\x11\x07\xfe\xe0'
p3963
tp3964
Rp3965
sS'book_time'
p3966
g10
(S'\x07\xe3\n\x12\x15\x07\x0f\x03\xd8`'
p3967
tp3968
Rp3969
sS'misc'
p3970
(dp3971
S'tid'
p3972
I101
sS'idxs'
p3973
(dp3974
S'units1'
p3975
(lp3976
I101
asS'units2'
p3977
(lp3978
I101
asS'batch_size'
p3979
(lp3980
I101
assS'cmd'
p3981
(S'domain_attachment'
p3982
S'FMinIter_Domain'
p3983
tp3984
sS'vals'
p3985
(dp3986
g3975
(lp3987
F25.0
asg3977
(lp3988
F90.0
asg3979
(lp3989
I0
assS'workdir'
p3990
NssS'exp_key'
p3991
NsS'owner'
p3992
NsS'state'
p3993
I2
sS'version'
p3994
I0
sS'result'
p3995
(dp3996
S'status'
p3997
S'ok'
p3998
sS'loss'
p3999
F0.0114
ssg3972
I101
sS'spec'
p4000
Nsa(dp4001
S'refresh_time'
p4002
g10
(S'\x07\xe3\n\x12\x15%)\x0e\x1dH'
p4003
tp4004
Rp4005
sS'book_time'
p4006
g10
(S'\x07\xe3\n\x12\x15\x15\x11\x08l@'
p4007
tp4008
Rp4009
sS'misc'
p4010
(dp4011
S'tid'
p4012
I102
sS'idxs'
p4013
(dp4014
S'units1'
p4015
(lp4016
I102
asS'units2'
p4017
(lp4018
I102
asS'batch_size'
p4019
(lp4020
I102
assS'cmd'
p4021
(S'domain_attachment'
p4022
S'FMinIter_Domain'
p4023
tp4024
sS'vals'
p4025
(dp4026
g4015
(lp4027
F60.0
asg4017
(lp4028
F65.0
asg4019
(lp4029
I0
assS'workdir'
p4030
NssS'state'
p4031
I2
sg4012
I102
sS'exp_key'
p4032
NsS'version'
p4033
I0
sS'result'
p4034
(dp4035
S'status'
p4036
S'ok'
p4037
sS'loss'
p4038
F0.0073
ssS'owner'
p4039
NsS'spec'
p4040
Nsa(dp4041
S'refresh_time'
p4042
g10
(S'\x07\xe3\n\x12\x157\x1f\x0b\xdf\x10'
p4043
tp4044
Rp4045
sS'book_time'
p4046
g10
(S'\x07\xe3\n\x12\x15%)\x0ew '
p4047
tp4048
Rp4049
sS'misc'
p4050
(dp4051
S'tid'
p4052
I103
sS'idxs'
p4053
(dp4054
S'units1'
p4055
(lp4056
I103
asS'units2'
p4057
(lp4058
I103
asS'batch_size'
p4059
(lp4060
I103
assS'cmd'
p4061
(S'domain_attachment'
p4062
S'FMinIter_Domain'
p4063
tp4064
sS'vals'
p4065
(dp4066
g4055
(lp4067
F85.0
asg4057
(lp4068
F20.0
asg4059
(lp4069
I0
assS'workdir'
p4070
NssS'exp_key'
p4071
NsS'owner'
p4072
NsS'state'
p4073
I2
sS'version'
p4074
I0
sS'result'
p4075
(dp4076
S'status'
p4077
S'ok'
p4078
sS'loss'
p4079
F0.0102
ssg4052
I103
sS'spec'
p4080
Nsa(dp4081
S'refresh_time'
p4082
g10
(S'\x07\xe3\n\x12\x16\x0c \x05G\x90'
p4083
tp4084
Rp4085
sS'book_time'
p4086
g10
(S'\x07\xe3\n\x12\x157\x1f\x0c<\xd0'
p4087
tp4088
Rp4089
sS'misc'
p4090
(dp4091
S'tid'
p4092
I104
sS'idxs'
p4093
(dp4094
S'units1'
p4095
(lp4096
I104
asS'units2'
p4097
(lp4098
I104
asS'batch_size'
p4099
(lp4100
I104
assS'cmd'
p4101
(S'domain_attachment'
p4102
S'FMinIter_Domain'
p4103
tp4104
sS'vals'
p4105
(dp4106
g4095
(lp4107
F60.0
asg4097
(lp4108
F70.0
asg4099
(lp4109
I0
assS'workdir'
p4110
NssS'state'
p4111
I2
sg4092
I104
sS'exp_key'
p4112
NsS'version'
p4113
I0
sS'result'
p4114
(dp4115
S'status'
p4116
S'ok'
p4117
sS'loss'
p4118
F0.0081
ssS'owner'
p4119
NsS'spec'
p4120
Nsa(dp4121
S'refresh_time'
p4122
g10
(S'\x07\xe3\n\x12\x16\x1f-\x03\x92\x10'
p4123
tp4124
Rp4125
sS'book_time'
p4126
g10
(S'\x07\xe3\n\x12\x16\x0c \x05\xad '
p4127
tp4128
Rp4129
sS'misc'
p4130
(dp4131
S'tid'
p4132
I105
sS'idxs'
p4133
(dp4134
S'units1'
p4135
(lp4136
I105
asS'units2'
p4137
(lp4138
I105
asS'batch_size'
p4139
(lp4140
I105
assS'cmd'
p4141
(S'domain_attachment'
p4142
S'FMinIter_Domain'
p4143
tp4144
sS'vals'
p4145
(dp4146
g4135
(lp4147
F80.0
asg4137
(lp4148
F45.0
asg4139
(lp4149
I0
assS'workdir'
p4150
NssS'exp_key'
p4151
NsS'owner'
p4152
NsS'state'
p4153
I2
sS'version'
p4154
I0
sS'result'
p4155
(dp4156
S'status'
p4157
S'ok'
p4158
sS'loss'
p4159
F0.0095
ssg4132
I105
sS'spec'
p4160
Nsa(dp4161
S'refresh_time'
p4162
g10
(S'\x07\xe3\n\x12\x16/\x05\x03g\x18'
p4163
tp4164
Rp4165
sS'book_time'
p4166
g10
(S'\x07\xe3\n\x12\x16\x1f-\x04\x07@'
p4167
tp4168
Rp4169
sS'misc'
p4170
(dp4171
S'tid'
p4172
I106
sS'idxs'
p4173
(dp4174
S'units1'
p4175
(lp4176
I106
asS'units2'
p4177
(lp4178
I106
asS'batch_size'
p4179
(lp4180
I106
assS'cmd'
p4181
(S'domain_attachment'
p4182
S'FMinIter_Domain'
p4183
tp4184
sS'vals'
p4185
(dp4186
g4175
(lp4187
F40.0
asg4177
(lp4188
F85.0
asg4179
(lp4189
I0
assS'workdir'
p4190
NssS'state'
p4191
I2
sg4172
I106
sS'exp_key'
p4192
NsS'version'
p4193
I0
sS'result'
p4194
(dp4195
S'status'
p4196
S'ok'
p4197
sS'loss'
p4198
F0.0079
ssS'owner'
p4199
NsS'spec'
p4200
Nsa(dp4201
S'refresh_time'
p4202
g10
(S'\x07\xe3\n\x12\x17\x0b\x02\x05\xc8x'
p4203
tp4204
Rp4205
sS'book_time'
p4206
g10
(S'\x07\xe3\n\x12\x16/\x05\x03\xc4\xd8'
p4207
tp4208
Rp4209
sS'misc'
p4210
(dp4211
S'tid'
p4212
I107
sS'idxs'
p4213
(dp4214
S'units1'
p4215
(lp4216
I107
asS'units2'
p4217
(lp4218
I107
asS'batch_size'
p4219
(lp4220
I107
assS'cmd'
p4221
(S'domain_attachment'
p4222
S'FMinIter_Domain'
p4223
tp4224
sS'vals'
p4225
(dp4226
g4215
(lp4227
F85.0
asg4217
(lp4228
F100.0
asg4219
(lp4229
I0
assS'workdir'
p4230
NssS'exp_key'
p4231
NsS'owner'
p4232
NsS'state'
p4233
I2
sS'version'
p4234
I0
sS'result'
p4235
(dp4236
S'status'
p4237
S'ok'
p4238
sS'loss'
p4239
F0.0102
ssg4212
I107
sS'spec'
p4240
Nsa(dp4241
S'refresh_time'
p4242
g10
(S"\x07\xe3\n\x12\x17\x17'\x07K0"
p4243
tp4244
Rp4245
sS'book_time'
p4246
g10
(S'\x07\xe3\n\x12\x17\x0b\x02\x06.\x08'
p4247
tp4248
Rp4249
sS'misc'
p4250
(dp4251
S'tid'
p4252
I108
sS'idxs'
p4253
(dp4254
S'units1'
p4255
(lp4256
I108
asS'units2'
p4257
(lp4258
I108
asS'batch_size'
p4259
(lp4260
I108
assS'cmd'
p4261
(S'domain_attachment'
p4262
S'FMinIter_Domain'
p4263
tp4264
sS'vals'
p4265
(dp4266
g4255
(lp4267
F5.0
asg4257
(lp4268
F85.0
asg4259
(lp4269
I0
assS'workdir'
p4270
NssS'state'
p4271
I2
sg4252
I108
sS'exp_key'
p4272
NsS'version'
p4273
I0
sS'result'
p4274
(dp4275
S'status'
p4276
S'ok'
p4277
sS'loss'
p4278
F0.0368
ssS'owner'
p4279
NsS'spec'
p4280
Nsa(dp4281
S'refresh_time'
p4282
g10
(S"\x07\xe3\n\x12\x17'+\x0e\xbdp"
p4283
tp4284
Rp4285
sS'book_time'
p4286
g10
(S"\x07\xe3\n\x12\x17\x17'\x07\xb0\xc0"
p4287
tp4288
Rp4289
sS'misc'
p4290
(dp4291
S'tid'
p4292
I109
sS'idxs'
p4293
(dp4294
S'units1'
p4295
(lp4296
I109
asS'units2'
p4297
(lp4298
I109
asS'batch_size'
p4299
(lp4300
I109
assS'cmd'
p4301
(S'domain_attachment'
p4302
S'FMinIter_Domain'
p4303
tp4304
sS'vals'
p4305
(dp4306
g4295
(lp4307
F65.0
asg4297
(lp4308
F10.0
asg4299
(lp4309
I0
assS'workdir'
p4310
NssS'exp_key'
p4311
NsS'owner'
p4312
NsS'state'
p4313
I2
sS'version'
p4314
I0
sS'result'
p4315
(dp4316
S'status'
p4317
S'ok'
p4318
sS'loss'
p4319
F0.0094
ssg4292
I109
sS'spec'
p4320
Nsa(dp4321
S'refresh_time'
p4322
g10
(S'\x07\xe3\n\x12\x176\x04\x0c\x7f8'
p4323
tp4324
Rp4325
sS'book_time'
p4326
g10
(S"\x07\xe3\n\x12\x17'+\x0f:p"
p4327
tp4328
Rp4329
sS'misc'
p4330
(dp4331
S'tid'
p4332
I110
sS'idxs'
p4333
(dp4334
S'units1'
p4335
(lp4336
I110
asS'units2'
p4337
(lp4338
I110
asS'batch_size'
p4339
(lp4340
I110
assS'cmd'
p4341
(S'domain_attachment'
p4342
S'FMinIter_Domain'
p4343
tp4344
sS'vals'
p4345
(dp4346
g4335
(lp4347
F5.0
asg4337
(lp4348
F70.0
asg4339
(lp4349
I0
assS'workdir'
p4350
NssS'state'
p4351
I2
sg4332
I110
sS'exp_key'
p4352
NsS'version'
p4353
I0
sS'result'
p4354
(dp4355
S'status'
p4356
S'ok'
p4357
sS'loss'
p4358
F0.0368
ssS'owner'
p4359
NsS'spec'
p4360
Nsa(dp4361
S'refresh_time'
p4362
g10
(S'\x07\xe3\n\x13\x00\x08*\x04\xf1\xa0'
p4363
tp4364
Rp4365
sS'book_time'
p4366
g10
(S'\x07\xe3\n\x12\x176\x04\x0c\xe0\xe0'
p4367
tp4368
Rp4369
sS'misc'
p4370
(dp4371
S'tid'
p4372
I111
sS'idxs'
p4373
(dp4374
S'units1'
p4375
(lp4376
I111
asS'units2'
p4377
(lp4378
I111
asS'batch_size'
p4379
(lp4380
I111
assS'cmd'
p4381
(S'domain_attachment'
p4382
S'FMinIter_Domain'
p4383
tp4384
sS'vals'
p4385
(dp4386
g4375
(lp4387
F40.0
asg4377
(lp4388
F20.0
asg4379
(lp4389
I0
assS'workdir'
p4390
NssS'exp_key'
p4391
NsS'owner'
p4392
NsS'state'
p4393
I2
sS'version'
p4394
I0
sS'result'
p4395
(dp4396
S'status'
p4397
S'ok'
p4398
sS'loss'
p4399
F0.0088
ssg4372
I111
sS'spec'
p4400
Nsa(dp4401
S'refresh_time'
p4402
g10
(S'\x07\xe3\n\x13\x00\x1a&\x01\x11p'
p4403
tp4404
Rp4405
sS'book_time'
p4406
g10
(S'\x07\xe3\n\x13\x00\x08*\x05W0'
p4407
tp4408
Rp4409
sS'misc'
p4410
(dp4411
S'tid'
p4412
I112
sS'idxs'
p4413
(dp4414
S'units1'
p4415
(lp4416
I112
asS'units2'
p4417
(lp4418
I112
asS'batch_size'
p4419
(lp4420
I112
assS'cmd'
p4421
(S'domain_attachment'
p4422
S'FMinIter_Domain'
p4423
tp4424
sS'vals'
p4425
(dp4426
g4415
(lp4427
F90.0
asg4417
(lp4428
F15.0
asg4419
(lp4429
I0
assS'workdir'
p4430
NssS'state'
p4431
I2
sg4412
I112
sS'exp_key'
p4432
NsS'version'
p4433
I0
sS'result'
p4434
(dp4435
S'status'
p4436
S'ok'
p4437
sS'loss'
p4438
F0.0098
ssS'owner'
p4439
NsS'spec'
p4440
Nsa(dp4441
S'refresh_time'
p4442
g10
(S'\x07\xe3\n\x13\x0019\x00\xe2\x90'
p4443
tp4444
Rp4445
sS'book_time'
p4446
g10
(S'\x07\xe3\n\x13\x00\x1a&\x01z\xe8'
p4447
tp4448
Rp4449
sS'misc'
p4450
(dp4451
S'tid'
p4452
I113
sS'idxs'
p4453
(dp4454
S'units1'
p4455
(lp4456
I113
asS'units2'
p4457
(lp4458
I113
asS'batch_size'
p4459
(lp4460
I113
assS'cmd'
p4461
(S'domain_attachment'
p4462
S'FMinIter_Domain'
p4463
tp4464
sS'vals'
p4465
(dp4466
g4455
(lp4467
F80.0
asg4457
(lp4468
F95.0
asg4459
(lp4469
I0
assS'workdir'
p4470
NssS'exp_key'
p4471
NsS'owner'
p4472
NsS'state'
p4473
I2
sS'version'
p4474
I0
sS'result'
p4475
(dp4476
S'status'
p4477
S'ok'
p4478
sS'loss'
p4479
F0.0127
ssg4452
I113
sS'spec'
p4480
Nsa(dp4481
S'refresh_time'
p4482
g10
(S'\x07\xe3\n\x13\x01\x06*\x0bF\xb8'
p4483
tp4484
Rp4485
sS'book_time'
p4486
g10
(S'\x07\xe3\n\x13\x0019\x01cx'
p4487
tp4488
Rp4489
sS'misc'
p4490
(dp4491
S'tid'
p4492
I114
sS'idxs'
p4493
(dp4494
S'units1'
p4495
(lp4496
I114
asS'units2'
p4497
(lp4498
I114
asS'batch_size'
p4499
(lp4500
I114
assS'cmd'
p4501
(S'domain_attachment'
p4502
S'FMinIter_Domain'
p4503
tp4504
sS'vals'
p4505
(dp4506
g4495
(lp4507
F65.0
asg4497
(lp4508
F25.0
asg4499
(lp4509
I0
assS'workdir'
p4510
NssS'state'
p4511
I2
sg4492
I114
sS'exp_key'
p4512
NsS'version'
p4513
I0
sS'result'
p4514
(dp4515
S'status'
p4516
S'ok'
p4517
sS'loss'
p4518
F0.0087
ssS'owner'
p4519
NsS'spec'
p4520
Nsa(dp4521
S'refresh_time'
p4522
g10
(S'\x07\xe3\n\x13\x01\x13\x1a\x0c\xf4h'
p4523
tp4524
Rp4525
sS'book_time'
p4526
g10
(S'\x07\xe3\n\x13\x01\x06*\x0b\xbf\xd0'
p4527
tp4528
Rp4529
sS'misc'
p4530
(dp4531
S'tid'
p4532
I115
sS'idxs'
p4533
(dp4534
S'units1'
p4535
(lp4536
I115
asS'units2'
p4537
(lp4538
I115
asS'batch_size'
p4539
(lp4540
I115
assS'cmd'
p4541
(S'domain_attachment'
p4542
S'FMinIter_Domain'
p4543
tp4544
sS'vals'
p4545
(dp4546
g4535
(lp4547
F5.0
asg4537
(lp4548
F80.0
asg4539
(lp4549
I0
assS'workdir'
p4550
NssS'exp_key'
p4551
NsS'owner'
p4552
NsS'state'
p4553
I2
sS'version'
p4554
I0
sS'result'
p4555
(dp4556
S'status'
p4557
S'ok'
p4558
sS'loss'
p4559
F0.0368
ssg4532
I115
sS'spec'
p4560
Nsa(dp4561
S'refresh_time'
p4562
g10
(S'\x07\xe3\n\x13\x01#\x00\x02:P'
p4563
tp4564
Rp4565
sS'book_time'
p4566
g10
(S'\x07\xe3\n\x13\x01\x13\x1a\r} '
p4567
tp4568
Rp4569
sS'misc'
p4570
(dp4571
S'tid'
p4572
I116
sS'idxs'
p4573
(dp4574
S'units1'
p4575
(lp4576
I116
asS'units2'
p4577
(lp4578
I116
asS'batch_size'
p4579
(lp4580
I116
assS'cmd'
p4581
(S'domain_attachment'
p4582
S'FMinIter_Domain'
p4583
tp4584
sS'vals'
p4585
(dp4586
g4575
(lp4587
F50.0
asg4577
(lp4588
F55.0
asg4579
(lp4589
I0
assS'workdir'
p4590
NssS'state'
p4591
I2
sg4572
I116
sS'exp_key'
p4592
NsS'version'
p4593
I0
sS'result'
p4594
(dp4595
S'status'
p4596
S'ok'
p4597
sS'loss'
p4598
F0.0071
ssS'owner'
p4599
NsS'spec'
p4600
Nsa(dp4601
S'refresh_time'
p4602
g10
(S'\x07\xe3\n\x13\x012\t\x05,8'
p4603
tp4604
Rp4605
sS'book_time'
p4606
g10
(S'\x07\xe3\n\x13\x01#\x00\x02\xa3\xc8'
p4607
tp4608
Rp4609
sS'misc'
p4610
(dp4611
S'tid'
p4612
I117
sS'idxs'
p4613
(dp4614
S'units1'
p4615
(lp4616
I117
asS'units2'
p4617
(lp4618
I117
asS'batch_size'
p4619
(lp4620
I117
assS'cmd'
p4621
(S'domain_attachment'
p4622
S'FMinIter_Domain'
p4623
tp4624
sS'vals'
p4625
(dp4626
g4615
(lp4627
F15.0
asg4617
(lp4628
F100.0
asg4619
(lp4629
I0
assS'workdir'
p4630
NssS'exp_key'
p4631
NsS'owner'
p4632
NsS'state'
p4633
I2
sS'version'
p4634
I0
sS'result'
p4635
(dp4636
S'status'
p4637
S'ok'
p4638
sS'loss'
p4639
F0.0176
ssg4612
I117
sS'spec'
p4640
Nsa(dp4641
S'refresh_time'
p4642
g10
(S'\x07\xe3\n\x13\x02\x069\x02a`'
p4643
tp4644
Rp4645
sS'book_time'
p4646
g10
(S'\x07\xe3\n\x13\x012\t\x05\x9d\x80'
p4647
tp4648
Rp4649
sS'misc'
p4650
(dp4651
S'tid'
p4652
I118
sS'idxs'
p4653
(dp4654
S'units1'
p4655
(lp4656
I118
asS'units2'
p4657
(lp4658
I118
asS'batch_size'
p4659
(lp4660
I118
assS'cmd'
p4661
(S'domain_attachment'
p4662
S'FMinIter_Domain'
p4663
tp4664
sS'vals'
p4665
(dp4666
g4655
(lp4667
F55.0
asg4657
(lp4668
F85.0
asg4659
(lp4669
I0
assS'workdir'
p4670
NssS'state'
p4671
I2
sg4652
I118
sS'exp_key'
p4672
NsS'version'
p4673
I0
sS'result'
p4674
(dp4675
S'status'
p4676
S'ok'
p4677
sS'loss'
p4678
F0.0102
ssS'owner'
p4679
NsS'spec'
p4680
Nsa(dp4681
S'refresh_time'
p4682
g10
(S'\x07\xe3\n\x13\x02\x14$\x07\xac\xd8'
p4683
tp4684
Rp4685
sS'book_time'
p4686
g10
(S'\x07\xe3\n\x13\x02\x069\x02\xe60'
p4687
tp4688
Rp4689
sS'misc'
p4690
(dp4691
S'tid'
p4692
I119
sS'idxs'
p4693
(dp4694
S'units1'
p4695
(lp4696
I119
asS'units2'
p4697
(lp4698
I119
asS'batch_size'
p4699
(lp4700
I119
assS'cmd'
p4701
(S'domain_attachment'
p4702
S'FMinIter_Domain'
p4703
tp4704
sS'vals'
p4705
(dp4706
g4695
(lp4707
F5.0
asg4697
(lp4708
F50.0
asg4699
(lp4709
I0
assS'workdir'
p4710
NssS'exp_key'
p4711
NsS'owner'
p4712
NsS'state'
p4713
I2
sS'version'
p4714
I0
sS'result'
p4715
(dp4716
S'status'
p4717
S'ok'
p4718
sS'loss'
p4719
F0.0368
ssg4692
I119
sS'spec'
p4720
Nsa(dp4721
S'refresh_time'
p4722
g10
(S'\x07\xe3\n\x13\x02*3\n\xd9X'
p4723
tp4724
Rp4725
sS'book_time'
p4726
g10
(S'\x07\xe3\n\x13\x02\x14$\x08\x16P'
p4727
tp4728
Rp4729
sS'misc'
p4730
(dp4731
S'tid'
p4732
I120
sS'idxs'
p4733
(dp4734
S'units1'
p4735
(lp4736
I120
asS'units2'
p4737
(lp4738
I120
asS'batch_size'
p4739
(lp4740
I120
assS'cmd'
p4741
(S'domain_attachment'
p4742
S'FMinIter_Domain'
p4743
tp4744
sS'vals'
p4745
(dp4746
g4735
(lp4747
F85.0
asg4737
(lp4748
F70.0
asg4739
(lp4749
I0
assS'workdir'
p4750
NssS'state'
p4751
I2
sg4732
I120
sS'exp_key'
p4752
NsS'version'
p4753
I0
sS'result'
p4754
(dp4755
S'status'
p4756
S'ok'
p4757
sS'loss'
p4758
F0.0108
ssS'owner'
p4759
NsS'spec'
p4760
Nsa(dp4761
S'refresh_time'
p4762
g10
(S'\x07\xe3\n\x13\x03\x019\x0c!x'
p4763
tp4764
Rp4765
sS'book_time'
p4766
g10
(S'\x07\xe3\n\x13\x02*3\x0bF\xb8'
p4767
tp4768
Rp4769
sS'misc'
p4770
(dp4771
S'tid'
p4772
I121
sS'idxs'
p4773
(dp4774
S'units1'
p4775
(lp4776
I121
asS'units2'
p4777
(lp4778
I121
asS'batch_size'
p4779
(lp4780
I121
assS'cmd'
p4781
(S'domain_attachment'
p4782
S'FMinIter_Domain'
p4783
tp4784
sS'vals'
p4785
(dp4786
g4775
(lp4787
F75.0
asg4777
(lp4788
F45.0
asg4779
(lp4789
I0
assS'workdir'
p4790
NssS'exp_key'
p4791
NsS'owner'
p4792
NsS'state'
p4793
I2
sS'version'
p4794
I0
sS'result'
p4795
(dp4796
S'status'
p4797
S'ok'
p4798
sS'loss'
p4799
F0.0093
ssg4772
I121
sS'spec'
p4800
Nsa(dp4801
S'refresh_time'
p4802
g10
(S'\x07\xe3\n\x13\x03\x19,\t\xe3@'
p4803
tp4804
Rp4805
sS'book_time'
p4806
g10
(S'\x07\xe3\n\x13\x03\x019\x0c\xa6H'
p4807
tp4808
Rp4809
sS'misc'
p4810
(dp4811
S'tid'
p4812
I122
sS'idxs'
p4813
(dp4814
S'units1'
p4815
(lp4816
I122
asS'units2'
p4817
(lp4818
I122
asS'batch_size'
p4819
(lp4820
I122
assS'cmd'
p4821
(S'domain_attachment'
p4822
S'FMinIter_Domain'
p4823
tp4824
sS'vals'
p4825
(dp4826
g4815
(lp4827
F90.0
asg4817
(lp4828
F80.0
asg4819
(lp4829
I0
assS'workdir'
p4830
NssS'state'
p4831
I2
sg4812
I122
sS'exp_key'
p4832
NsS'version'
p4833
I0
sS'result'
p4834
(dp4835
S'status'
p4836
S'ok'
p4837
sS'loss'
p4838
F0.0087
ssS'owner'
p4839
NsS'spec'
p4840
Nsa(dp4841
S'refresh_time'
p4842
g10
(S"\x07\xe3\n\x13\x03',\x04h\xe8"
p4843
tp4844
Rp4845
sS'book_time'
p4846
g10
(S'\x07\xe3\n\x13\x03\x19,\nP\xa0'
p4847
tp4848
Rp4849
sS'misc'
p4850
(dp4851
S'tid'
p4852
I123
sS'idxs'
p4853
(dp4854
S'units1'
p4855
(lp4856
I123
asS'units2'
p4857
(lp4858
I123
asS'batch_size'
p4859
(lp4860
I123
assS'cmd'
p4861
(S'domain_attachment'
p4862
S'FMinIter_Domain'
p4863
tp4864
sS'vals'
p4865
(dp4866
g4855
(lp4867
F15.0
asg4857
(lp4868
F30.0
asg4859
(lp4869
I0
assS'workdir'
p4870
NssS'exp_key'
p4871
NsS'owner'
p4872
NsS'state'
p4873
I2
sS'version'
p4874
I0
sS'result'
p4875
(dp4876
S'status'
p4877
S'ok'
p4878
sS'loss'
p4879
F0.0172
ssg4852
I123
sS'spec'
p4880
Nsa(dp4881
S'refresh_time'
p4882
g10
(S'\x07\xe3\n\x14\t\x11:\x00\x1f@'
p4883
tp4884
Rp4885
sS'book_time'
p4886
g10
(S'\x07\xe3\n\x14\t\x03,\x046 '
p4887
tp4888
Rp4889
sS'misc'
p4890
(dp4891
S'tid'
p4892
I124
sS'idxs'
p4893
(dp4894
S'units1'
p4895
(lp4896
I124
asS'units2'
p4897
(lp4898
I124
asS'batch_size'
p4899
(lp4900
I124
assS'cmd'
p4901
(S'domain_attachment'
p4902
S'FMinIter_Domain'
p4903
tp4904
sS'vals'
p4905
(dp4906
g4895
(lp4907
F20.0
asg4897
(lp4908
F25.0
asg4899
(lp4909
I0
assS'workdir'
p4910
NssS'state'
p4911
I2
sg4892
I124
sS'exp_key'
p4912
NsS'version'
p4913
I0
sS'result'
p4914
(dp4915
S'status'
p4916
S'ok'
p4917
sS'loss'
p4918
F0.014
ssS'owner'
p4919
NsS'spec'
p4920
Nsa(dp4921
S'refresh_time'
p4922
g10
(S'\x07\xe3\n\x14\t\x1f,\x03r\xd0'
p4923
tp4924
Rp4925
sS'book_time'
p4926
g10
(S'\x07\xe3\n\x14\t\x11:\x00\x98X'
p4927
tp4928
Rp4929
sS'misc'
p4930
(dp4931
S'tid'
p4932
I125
sS'idxs'
p4933
(dp4934
S'units1'
p4935
(lp4936
I125
asS'units2'
p4937
(lp4938
I125
asS'batch_size'
p4939
(lp4940
I125
assS'cmd'
p4941
(S'domain_attachment'
p4942
S'FMinIter_Domain'
p4943
tp4944
sS'vals'
p4945
(dp4946
g4935
(lp4947
F15.0
asg4937
(lp4948
F65.0
asg4939
(lp4949
I0
assS'workdir'
p4950
NssS'exp_key'
p4951
NsS'owner'
p4952
NsS'state'
p4953
I2
sS'version'
p4954
I0
sS'result'
p4955
(dp4956
S'status'
p4957
S'ok'
p4958
sS'loss'
p4959
F0.0175
ssg4932
I125
sS'spec'
p4960
Nsa(dp4961
S'refresh_time'
p4962
g10
(S'\x07\xe3\n\x14\t.3\x0c\xb9\xd0'
p4963
tp4964
Rp4965
sS'book_time'
p4966
g10
(S'\x07\xe3\n\x14\t\x1f,\x03\xd8`'
p4967
tp4968
Rp4969
sS'misc'
p4970
(dp4971
S'tid'
p4972
I126
sS'idxs'
p4973
(dp4974
S'units1'
p4975
(lp4976
I126
asS'units2'
p4977
(lp4978
I126
asS'batch_size'
p4979
(lp4980
I126
assS'cmd'
p4981
(S'domain_attachment'
p4982
S'FMinIter_Domain'
p4983
tp4984
sS'vals'
p4985
(dp4986
g4975
(lp4987
F15.0
asg4977
(lp4988
F35.0
asg4979
(lp4989
I0
assS'workdir'
p4990
NssS'state'
p4991
I2
sg4972
I126
sS'exp_key'
p4992
NsS'version'
p4993
I0
sS'result'
p4994
(dp4995
S'status'
p4996
S'ok'
p4997
sS'loss'
p4998
F0.0174
ssS'owner'
p4999
NsS'spec'
p5000
Nsa(dp5001
S'refresh_time'
p5002
g10
(S'\x07\xe3\n\x14\n\n\x10\x00qH'
p5003
tp5004
Rp5005
sS'book_time'
p5006
g10
(S"\x07\xe3\n\x14\t.3\r'0"
p5007
tp5008
Rp5009
sS'misc'
p5010
(dp5011
S'tid'
p5012
I127
sS'idxs'
p5013
(dp5014
S'units1'
p5015
(lp5016
I127
asS'units2'
p5017
(lp5018
I127
asS'batch_size'
p5019
(lp5020
I127
assS'cmd'
p5021
(S'domain_attachment'
p5022
S'FMinIter_Domain'
p5023
tp5024
sS'vals'
p5025
(dp5026
g5015
(lp5027
F85.0
asg5017
(lp5028
F85.0
asg5019
(lp5029
I0
assS'workdir'
p5030
NssS'exp_key'
p5031
NsS'owner'
p5032
NsS'state'
p5033
I2
sS'version'
p5034
I0
sS'result'
p5035
(dp5036
S'status'
p5037
S'ok'
p5038
sS'loss'
p5039
F0.0114
ssg5012
I127
sS'spec'
p5040
Nsa(dp5041
S'refresh_time'
p5042
g10
(S'\x07\xe3\n\x14\n\x1d:\x06\xb2\xd8'
p5043
tp5044
Rp5045
sS'book_time'
p5046
g10
(S'\x07\xe3\n\x14\n\n\x10\x00\xe2\x90'
p5047
tp5048
Rp5049
sS'misc'
p5050
(dp5051
S'tid'
p5052
I128
sS'idxs'
p5053
(dp5054
S'units1'
p5055
(lp5056
I128
asS'units2'
p5057
(lp5058
I128
asS'batch_size'
p5059
(lp5060
I128
assS'cmd'
p5061
(S'domain_attachment'
p5062
S'FMinIter_Domain'
p5063
tp5064
sS'vals'
p5065
(dp5066
g5055
(lp5067
F90.0
asg5057
(lp5068
F45.0
asg5059
(lp5069
I0
assS'workdir'
p5070
NssS'state'
p5071
I2
sg5052
I128
sS'exp_key'
p5072
NsS'version'
p5073
I0
sS'result'
p5074
(dp5075
S'status'
p5076
S'ok'
p5077
sS'loss'
p5078
F0.0088
ssS'owner'
p5079
NsS'spec'
p5080
Nsa(dp5081
S'refresh_time'
p5082
g10
(S'\x07\xe3\n\x14\n1\x07\x0c\xf4h'
p5083
tp5084
Rp5085
sS'book_time'
p5086
g10
(S'\x07\xe3\n\x14\n\x1d:\x07 8'
p5087
tp5088
Rp5089
sS'misc'
p5090
(dp5091
S'tid'
p5092
I129
sS'idxs'
p5093
(dp5094
S'units1'
p5095
(lp5096
I129
asS'units2'
p5097
(lp5098
I129
asS'batch_size'
p5099
(lp5100
I129
assS'cmd'
p5101
(S'domain_attachment'
p5102
S'FMinIter_Domain'
p5103
tp5104
sS'vals'
p5105
(dp5106
g5095
(lp5107
F75.0
asg5097
(lp5108
F55.0
asg5099
(lp5109
I0
assS'workdir'
p5110
NssS'exp_key'
p5111
NsS'owner'
p5112
NsS'state'
p5113
I2
sS'version'
p5114
I0
sS'result'
p5115
(dp5116
S'status'
p5117
S'ok'
p5118
sS'loss'
p5119
F0.009
ssg5092
I129
sS'spec'
p5120
Nsa(dp5121
S'refresh_time'
p5122
g10
(S'\x07\xe3\n\x14\x0b\x0f\x1e\x0c\x8a\xf0'
p5123
tp5124
Rp5125
sS'book_time'
p5126
g10
(S'\x07\xe3\n\x14\n1\x07\r} '
p5127
tp5128
Rp5129
sS'misc'
p5130
(dp5131
S'tid'
p5132
I130
sS'idxs'
p5133
(dp5134
S'units1'
p5135
(lp5136
I130
asS'units2'
p5137
(lp5138
I130
asS'batch_size'
p5139
(lp5140
I130
assS'cmd'
p5141
(S'domain_attachment'
p5142
S'FMinIter_Domain'
p5143
tp5144
sS'vals'
p5145
(dp5146
g5135
(lp5147
F100.0
asg5137
(lp5148
F90.0
asg5139
(lp5149
I0
assS'workdir'
p5150
NssS'state'
p5151
I2
sg5132
I130
sS'exp_key'
p5152
NsS'version'
p5153
I0
sS'result'
p5154
(dp5155
S'status'
p5156
S'ok'
p5157
sS'loss'
p5158
F0.0072
ssS'owner'
p5159
NsS'spec'
p5160
Nsa(dp5161
S'refresh_time'
p5162
g10
(S'\x07\xe3\n\x14\x0b\x1d)\x0e\xc1X'
p5163
tp5164
Rp5165
sS'book_time'
p5166
g10
(S'\x07\xe3\n\x14\x0b\x0f\x1e\r:\xb8'
p5167
tp5168
Rp5169
sS'misc'
p5170
(dp5171
S'tid'
p5172
I131
sS'idxs'
p5173
(dp5174
S'units1'
p5175
(lp5176
I131
asS'units2'
p5177
(lp5178
I131
asS'batch_size'
p5179
(lp5180
I131
assS'cmd'
p5181
(S'domain_attachment'
p5182
S'FMinIter_Domain'
p5183
tp5184
sS'vals'
p5185
(dp5186
g5175
(lp5187
F20.0
asg5177
(lp5188
F30.0
asg5179
(lp5189
I0
assS'workdir'
p5190
NssS'exp_key'
p5191
NsS'owner'
p5192
NsS'state'
p5193
I2
sS'version'
p5194
I0
sS'result'
p5195
(dp5196
S'status'
p5197
S'ok'
p5198
sS'loss'
p5199
F0.0144
ssg5172
I131
sS'spec'
p5200
Nsa(dp5201
S'refresh_time'
p5202
g10
(S'\x07\xe3\n\x14\x0b+\x1e\tZ\x88'
p5203
tp5204
Rp5205
sS'book_time'
p5206
g10
(S'\x07\xe3\n\x14\x0b\x1d)\x0f:p'
p5207
tp5208
Rp5209
sS'misc'
p5210
(dp5211
S'tid'
p5212
I132
sS'idxs'
p5213
(dp5214
S'units1'
p5215
(lp5216
I132
asS'units2'
p5217
(lp5218
I132
asS'batch_size'
p5219
(lp5220
I132
assS'cmd'
p5221
(S'domain_attachment'
p5222
S'FMinIter_Domain'
p5223
tp5224
sS'vals'
p5225
(dp5226
g5215
(lp5227
F35.0
asg5217
(lp5228
F10.0
asg5219
(lp5229
I0
assS'workdir'
p5230
NssS'state'
p5231
I2
sg5212
I132
sS'exp_key'
p5232
NsS'version'
p5233
I0
sS'result'
p5234
(dp5235
S'status'
p5236
S'ok'
p5237
sS'loss'
p5238
F0.0099
ssS'owner'
p5239
NsS'spec'
p5240
Nsa(dp5241
S'refresh_time'
p5242
g10
(S'\x07\xe3\n\x14\x0c\x010\x01\xe8H'
p5243
tp5244
Rp5245
sS'book_time'
p5246
g10
(S'\x07\xe3\n\x14\x0b+\x1e\t\xd7\x88'
p5247
tp5248
Rp5249
sS'misc'
p5250
(dp5251
S'tid'
p5252
I133
sS'idxs'
p5253
(dp5254
S'units1'
p5255
(lp5256
I133
asS'units2'
p5257
(lp5258
I133
asS'batch_size'
p5259
(lp5260
I133
assS'cmd'
p5261
(S'domain_attachment'
p5262
S'FMinIter_Domain'
p5263
tp5264
sS'vals'
p5265
(dp5266
g5255
(lp5267
F75.0
asg5257
(lp5268
F40.0
asg5259
(lp5269
I0
assS'workdir'
p5270
NssS'exp_key'
p5271
NsS'owner'
p5272
NsS'state'
p5273
I2
sS'version'
p5274
I0
sS'result'
p5275
(dp5276
S'status'
p5277
S'ok'
p5278
sS'loss'
p5279
F0.0094
ssg5252
I133
sS'spec'
p5280
Nsa(dp5281
S'refresh_time'
p5282
g10
(S'\x07\xe3\n\x14\x0c\x0e"\x0b\xcfp'
p5283
tp5284
Rp5285
sS'book_time'
p5286
g10
(S'\x07\xe3\n\x14\x0c\x010\x02q\x00'
p5287
tp5288
Rp5289
sS'misc'
p5290
(dp5291
S'tid'
p5292
I134
sS'idxs'
p5293
(dp5294
S'units1'
p5295
(lp5296
I134
asS'units2'
p5297
(lp5298
I134
asS'batch_size'
p5299
(lp5300
I134
assS'cmd'
p5301
(S'domain_attachment'
p5302
S'FMinIter_Domain'
p5303
tp5304
sS'vals'
p5305
(dp5306
g5295
(lp5307
F5.0
asg5297
(lp5308
F90.0
asg5299
(lp5309
I0
assS'workdir'
p5310
NssS'state'
p5311
I2
sg5292
I134
sS'exp_key'
p5312
NsS'version'
p5313
I0
sS'result'
p5314
(dp5315
S'status'
p5316
S'ok'
p5317
sS'loss'
p5318
F0.0368
ssS'owner'
p5319
NsS'spec'
p5320
Nsa(dp5321
S'refresh_time'
p5322
g10
(S'\x07\xe3\n\x14\x0c\x1f\x13\x01\xd8\xa8'
p5323
tp5324
Rp5325
sS'book_time'
p5326
g10
(S'\x07\xe3\n\x14\x0c\x0e"\x0cD\xa0'
p5327
tp5328
Rp5329
sS'misc'
p5330
(dp5331
S'tid'
p5332
I135
sS'idxs'
p5333
(dp5334
S'units1'
p5335
(lp5336
I135
asS'units2'
p5337
(lp5338
I135
asS'batch_size'
p5339
(lp5340
I135
assS'cmd'
p5341
(S'domain_attachment'
p5342
S'FMinIter_Domain'
p5343
tp5344
sS'vals'
p5345
(dp5346
g5335
(lp5347
F65.0
asg5337
(lp5348
F60.0
asg5339
(lp5349
I0
assS'workdir'
p5350
NssS'exp_key'
p5351
NsS'owner'
p5352
NsS'state'
p5353
I2
sS'version'
p5354
I0
sS'result'
p5355
(dp5356
S'status'
p5357
S'ok'
p5358
sS'loss'
p5359
F0.0094
ssg5332
I135
sS'spec'
p5360
Nsa(dp5361
S'refresh_time'
p5362
g10
(S'\x07\xe3\n\x14\x0c2\x06\x03Wx'
p5363
tp5364
Rp5365
sS'book_time'
p5366
g10
(S'\x07\xe3\n\x14\x0c\x1f\x13\x02M\xd8'
p5367
tp5368
Rp5369
sS'misc'
p5370
(dp5371
S'tid'
p5372
I136
sS'idxs'
p5373
(dp5374
S'units1'
p5375
(lp5376
I136
asS'units2'
p5377
(lp5378
I136
asS'batch_size'
p5379
(lp5380
I136
assS'cmd'
p5381
(S'domain_attachment'
p5382
S'FMinIter_Domain'
p5383
tp5384
sS'vals'
p5385
(dp5386
g5375
(lp5387
F95.0
asg5377
(lp5388
F25.0
asg5379
(lp5389
I0
assS'workdir'
p5390
NssS'state'
p5391
I2
sg5372
I136
sS'exp_key'
p5392
NsS'version'
p5393
I0
sS'result'
p5394
(dp5395
S'status'
p5396
S'ok'
p5397
sS'loss'
p5398
F0.0077
ssS'owner'
p5399
NsS'spec'
p5400
Nsa(dp5401
S'refresh_time'
p5402
g10
(S'\x07\xe3\n\x14\r\x03\x0e\x04\x93\xe0'
p5403
tp5404
Rp5405
sS'book_time'
p5406
g10
(S'\x07\xe3\n\x14\x0c2\x06\x04"\x98'
p5407
tp5408
Rp5409
sS'misc'
p5410
(dp5411
S'tid'
p5412
I137
sS'idxs'
p5413
(dp5414
S'units1'
p5415
(lp5416
I137
asS'units2'
p5417
(lp5418
I137
asS'batch_size'
p5419
(lp5420
I137
assS'cmd'
p5421
(S'domain_attachment'
p5422
S'FMinIter_Domain'
p5423
tp5424
sS'vals'
p5425
(dp5426
g5415
(lp5427
F20.0
asg5417
(lp5428
F85.0
asg5419
(lp5429
I0
assS'workdir'
p5430
NssS'exp_key'
p5431
NsS'owner'
p5432
NsS'state'
p5433
I2
sS'version'
p5434
I0
sS'result'
p5435
(dp5436
S'status'
p5437
S'ok'
p5438
sS'loss'
p5439
F0.0137
ssg5412
I137
sS'spec'
p5440
Nsa(dp5441
S'refresh_time'
p5442
g10
(S'\x07\xe3\n\x14\r\x112\x0e\x1dH'
p5443
tp5444
Rp5445
sS'book_time'
p5446
g10
(S'\x07\xe3\n\x14\r\x03\x0e\x054\x08'
p5447
tp5448
Rp5449
sS'misc'
p5450
(dp5451
S'tid'
p5452
I138
sS'idxs'
p5453
(dp5454
S'units1'
p5455
(lp5456
I138
asS'units2'
p5457
(lp5458
I138
asS'batch_size'
p5459
(lp5460
I138
assS'cmd'
p5461
(S'domain_attachment'
p5462
S'FMinIter_Domain'
p5463
tp5464
sS'vals'
p5465
(dp5466
g5455
(lp5467
F5.0
asg5457
(lp5468
F25.0
asg5459
(lp5469
I0
assS'workdir'
p5470
NssS'state'
p5471
I2
sg5452
I138
sS'exp_key'
p5472
NsS'version'
p5473
I0
sS'result'
p5474
(dp5475
S'status'
p5476
S'ok'
p5477
sS'loss'
p5478
F0.0368
ssS'owner'
p5479
NsS'spec'
p5480
Nsa(dp5481
S'refresh_time'
p5482
g10
(S'\x07\xe3\n\x14\r\x1e*\x06h\xa0'
p5483
tp5484
Rp5485
sS'book_time'
p5486
g10
(S'\x07\xe3\n\x14\r\x112\x0e\x96`'
p5487
tp5488
Rp5489
sS'misc'
p5490
(dp5491
S'tid'
p5492
I139
sS'idxs'
p5493
(dp5494
S'units1'
p5495
(lp5496
I139
asS'units2'
p5497
(lp5498
I139
asS'batch_size'
p5499
(lp5500
I139
assS'cmd'
p5501
(S'domain_attachment'
p5502
S'FMinIter_Domain'
p5503
tp5504
sS'vals'
p5505
(dp5506
g5495
(lp5507
F10.0
asg5497
(lp5508
F30.0
asg5499
(lp5509
I0
assS'workdir'
p5510
NssS'exp_key'
p5511
NsS'owner'
p5512
NsS'state'
p5513
I2
sS'version'
p5514
I0
sS'result'
p5515
(dp5516
S'status'
p5517
S'ok'
p5518
sS'loss'
p5519
F0.0236
ssg5492
I139
sS'spec'
p5520
Nsa(dp5521
S'refresh_time'
p5522
g10
(S'\x07\xe3\n\x14\r-+\x01~\xd0'
p5523
tp5524
Rp5525
sS'book_time'
p5526
g10
(S'\x07\xe3\n\x14\r\x1e*\x06\xe9\x88'
p5527
tp5528
Rp5529
sS'misc'
p5530
(dp5531
S'tid'
p5532
I140
sS'idxs'
p5533
(dp5534
S'units1'
p5535
(lp5536
I140
asS'units2'
p5537
(lp5538
I140
asS'batch_size'
p5539
(lp5540
I140
assS'cmd'
p5541
(S'domain_attachment'
p5542
S'FMinIter_Domain'
p5543
tp5544
sS'vals'
p5545
(dp5546
g5535
(lp5547
F25.0
asg5537
(lp5548
F10.0
asg5539
(lp5549
I0
assS'workdir'
p5550
NssS'state'
p5551
I2
sg5532
I140
sS'exp_key'
p5552
NsS'version'
p5553
I0
sS'result'
p5554
(dp5555
S'status'
p5556
S'ok'
p5557
sS'loss'
p5558
F0.0111
ssS'owner'
p5559
NsS'spec'
p5560
Nsa(dp5561
S'refresh_time'
p5562
g10
(S'\x07\xe3\n\x14\r;\x1f\n\x7f\x80'
p5563
tp5564
Rp5565
sS'book_time'
p5566
g10
(S'\x07\xe3\n\x14\r-+\x01\xf7\xe8'
p5567
tp5568
Rp5569
sS'misc'
p5570
(dp5571
S'tid'
p5572
I141
sS'idxs'
p5573
(dp5574
S'units1'
p5575
(lp5576
I141
asS'units2'
p5577
(lp5578
I141
asS'batch_size'
p5579
(lp5580
I141
assS'cmd'
p5581
(S'domain_attachment'
p5582
S'FMinIter_Domain'
p5583
tp5584
sS'vals'
p5585
(dp5586
g5575
(lp5587
F5.0
asg5577
(lp5588
F5.0
asg5579
(lp5589
I0
assS'workdir'
p5590
NssS'exp_key'
p5591
NsS'owner'
p5592
NsS'state'
p5593
I2
sS'version'
p5594
I0
sS'result'
p5595
(dp5596
S'status'
p5597
S'ok'
p5598
sS'loss'
p5599
F0.0368
ssg5572
I141
sS'spec'
p5600
Nsa(dp5601
S'refresh_time'
p5602
g10
(S'\x07\xe3\n\x14\x0e\x14\x16\x06\x9bh'
p5603
tp5604
Rp5605
sS'book_time'
p5606
g10
(S'\x07\xe3\n\x14\r;\x1f\x0b\x00h'
p5607
tp5608
Rp5609
sS'misc'
p5610
(dp5611
S'tid'
p5612
I142
sS'idxs'
p5613
(dp5614
S'units1'
p5615
(lp5616
I142
asS'units2'
p5617
(lp5618
I142
asS'batch_size'
p5619
(lp5620
I142
assS'cmd'
p5621
(S'domain_attachment'
p5622
S'FMinIter_Domain'
p5623
tp5624
sS'vals'
p5625
(dp5626
g5615
(lp5627
F75.0
asg5617
(lp5628
F85.0
asg5619
(lp5629
I0
assS'workdir'
p5630
NssS'state'
p5631
I2
sg5612
I142
sS'exp_key'
p5632
NsS'version'
p5633
I0
sS'result'
p5634
(dp5635
S'status'
p5636
S'ok'
p5637
sS'loss'
p5638
F0.0093
ssS'owner'
p5639
NsS'spec'
p5640
Nsa(dp5641
S'refresh_time'
p5642
g10
(S'\x07\xe3\n\x14\x0e!\x06\r\xd3\x10'
p5643
tp5644
Rp5645
sS'book_time'
p5646
g10
(S'\x07\xe3\n\x14\x0e\x14\x16\x07\x18h'
p5647
tp5648
Rp5649
sS'misc'
p5650
(dp5651
S'tid'
p5652
I143
sS'idxs'
p5653
(dp5654
S'units1'
p5655
(lp5656
I143
asS'units2'
p5657
(lp5658
I143
asS'batch_size'
p5659
(lp5660
I143
assS'cmd'
p5661
(S'domain_attachment'
p5662
S'FMinIter_Domain'
p5663
tp5664
sS'vals'
p5665
(dp5666
g5655
(lp5667
F15.0
asg5657
(lp5668
F10.0
asg5659
(lp5669
I0
assS'workdir'
p5670
NssS'exp_key'
p5671
NsS'owner'
p5672
NsS'state'
p5673
I2
sS'version'
p5674
I0
sS'result'
p5675
(dp5676
S'status'
p5677
S'ok'
p5678
sS'loss'
p5679
F0.0173
ssg5652
I143
sS'spec'
p5680
Nsa(dp5681
S'refresh_time'
p5682
g10
(S'\x07\xe3\n\x14\x0e1\x08\x0e_\xb0'
p5683
tp5684
Rp5685
sS'book_time'
p5686
g10
(S'\x07\xe3\n\x14\x0e!\x06\x0eg\x80'
p5687
tp5688
Rp5689
sS'misc'
p5690
(dp5691
S'tid'
p5692
I144
sS'idxs'
p5693
(dp5694
S'units1'
p5695
(lp5696
I144
asS'units2'
p5697
(lp5698
I144
asS'batch_size'
p5699
(lp5700
I144
assS'cmd'
p5701
(S'domain_attachment'
p5702
S'FMinIter_Domain'
p5703
tp5704
sS'vals'
p5705
(dp5706
g5695
(lp5707
F45.0
asg5697
(lp5708
F45.0
asg5699
(lp5709
I0
assS'workdir'
p5710
NssS'state'
p5711
I2
sg5692
I144
sS'exp_key'
p5712
NsS'version'
p5713
I0
sS'result'
p5714
(dp5715
S'status'
p5716
S'ok'
p5717
sS'loss'
p5718
F0.0125
ssS'owner'
p5719
NsS'spec'
p5720
Nsa(dp5721
S'refresh_time'
p5722
g10
(S'\x07\xe3\n\x14\x0f\x015\t#\xd8'
p5723
tp5724
Rp5725
sS'book_time'
p5726
g10
(S'\x07\xe3\n\x14\x0e1\t\x00\x13\x88'
p5727
tp5728
Rp5729
sS'misc'
p5730
(dp5731
S'tid'
p5732
I145
sS'idxs'
p5733
(dp5734
S'units1'
p5735
(lp5736
I145
asS'units2'
p5737
(lp5738
I145
asS'batch_size'
p5739
(lp5740
I145
assS'cmd'
p5741
(S'domain_attachment'
p5742
S'FMinIter_Domain'
p5743
tp5744
sS'vals'
p5745
(dp5746
g5735
(lp5747
F15.0
asg5737
(lp5748
F15.0
asg5739
(lp5749
I0
assS'workdir'
p5750
NssS'exp_key'
p5751
NsS'owner'
p5752
NsS'state'
p5753
I2
sS'version'
p5754
I0
sS'result'
p5755
(dp5756
S'status'
p5757
S'ok'
p5758
sS'loss'
p5759
F0.0173
ssg5732
I145
sS'spec'
p5760
Nsa(dp5761
S'refresh_time'
p5762
g10
(S'\x07\xe3\n\x14\x0f\x15\r\t\xa4\xc0'
p5763
tp5764
Rp5765
sS'book_time'
p5766
g10
(S'\x07\xe3\n\x14\x0f\x015\n)\x90'
p5767
tp5768
Rp5769
sS'misc'
p5770
(dp5771
S'tid'
p5772
I146
sS'idxs'
p5773
(dp5774
S'units1'
p5775
(lp5776
I146
asS'units2'
p5777
(lp5778
I146
asS'batch_size'
p5779
(lp5780
I146
assS'cmd'
p5781
(S'domain_attachment'
p5782
S'FMinIter_Domain'
p5783
tp5784
sS'vals'
p5785
(dp5786
g5775
(lp5787
F80.0
asg5777
(lp5788
F50.0
asg5779
(lp5789
I0
assS'workdir'
p5790
NssS'state'
p5791
I2
sg5772
I146
sS'exp_key'
p5792
NsS'version'
p5793
I0
sS'result'
p5794
(dp5795
S'status'
p5796
S'ok'
p5797
sS'loss'
p5798
F0.0162
ssS'owner'
p5799
NsS'spec'
p5800
Nsa(dp5801
S'refresh_time'
p5802
g10
(S'\x07\xe3\n\x14\x0f#,\n\xe5\x10'
p5803
tp5804
Rp5805
sS'book_time'
p5806
g10
(S'\x07\xe3\n\x14\x0f\x15\r\n%\xa8'
p5807
tp5808
Rp5809
sS'misc'
p5810
(dp5811
S'tid'
p5812
I147
sS'idxs'
p5813
(dp5814
S'units1'
p5815
(lp5816
I147
asS'units2'
p5817
(lp5818
I147
asS'batch_size'
p5819
(lp5820
I147
assS'cmd'
p5821
(S'domain_attachment'
p5822
S'FMinIter_Domain'
p5823
tp5824
sS'vals'
p5825
(dp5826
g5815
(lp5827
F30.0
asg5817
(lp5828
F70.0
asg5819
(lp5829
I0
assS'workdir'
p5830
NssS'exp_key'
p5831
NsS'owner'
p5832
NsS'state'
p5833
I2
sS'version'
p5834
I0
sS'result'
p5835
(dp5836
S'status'
p5837
S'ok'
p5838
sS'loss'
p5839
F0.0093
ssg5812
I147
sS'spec'
p5840
Nsa(dp5841
S'refresh_time'
p5842
g10
(S'\x07\xe3\n\x14\x0f1-\x07\xebX'
p5843
tp5844
Rp5845
sS'book_time'
p5846
g10
(S'\x07\xe3\n\x14\x0f#,\x0bi\xe0'
p5847
tp5848
Rp5849
sS'misc'
p5850
(dp5851
S'tid'
p5852
I148
sS'idxs'
p5853
(dp5854
S'units1'
p5855
(lp5856
I148
asS'units2'
p5857
(lp5858
I148
asS'batch_size'
p5859
(lp5860
I148
assS'cmd'
p5861
(S'domain_attachment'
p5862
S'FMinIter_Domain'
p5863
tp5864
sS'vals'
p5865
(dp5866
g5855
(lp5867
F30.0
asg5857
(lp5868
F5.0
asg5859
(lp5869
I0
assS'workdir'
p5870
NssS'state'
p5871
I2
sg5852
I148
sS'exp_key'
p5872
NsS'version'
p5873
I0
sS'result'
p5874
(dp5875
S'status'
p5876
S'ok'
p5877
sS'loss'
p5878
F0.0093
ssS'owner'
p5879
NsS'spec'
p5880
Nsa(dp5881
S'refresh_time'
p5882
g10
(S'\x07\xe3\n\x14\x10\x07+\x03r\xd0'
p5883
tp5884
Rp5885
sS'book_time'
p5886
g10
(S'\x07\xe3\n\x14\x0f1-\x08\xaa\xc0'
p5887
tp5888
Rp5889
sS'misc'
p5890
(dp5891
S'tid'
p5892
I149
sS'idxs'
p5893
(dp5894
S'units1'
p5895
(lp5896
I149
asS'units2'
p5897
(lp5898
I149
asS'batch_size'
p5899
(lp5900
I149
assS'cmd'
p5901
(S'domain_attachment'
p5902
S'FMinIter_Domain'
p5903
tp5904
sS'vals'
p5905
(dp5906
g5895
(lp5907
F80.0
asg5897
(lp5908
F15.0
asg5899
(lp5909
I0
assS'workdir'
p5910
NssS'exp_key'
p5911
NsS'owner'
p5912
NsS'state'
p5913
I2
sS'version'
p5914
I0
sS'result'
p5915
(dp5916
S'status'
p5917
S'ok'
p5918
sS'loss'
p5919
F0.0095
ssg5892
I149
sS'spec'
p5920
Nsa(dp5921
S'refresh_time'
p5922
g10
(S'\x07\xe3\n\x14\x10\x15\x03\x03\xd4x'
p5923
tp5924
Rp5925
sS'book_time'
p5926
g10
(S'\x07\xe3\n\x14\x10\x07+\x04:\x08'
p5927
tp5928
Rp5929
sS'misc'
p5930
(dp5931
S'tid'
p5932
I150
sS'idxs'
p5933
(dp5934
S'units1'
p5935
(lp5936
I150
asS'units2'
p5937
(lp5938
I150
asS'batch_size'
p5939
(lp5940
I150
assS'cmd'
p5941
(S'domain_attachment'
p5942
S'FMinIter_Domain'
p5943
tp5944
sS'vals'
p5945
(dp5946
g5935
(lp5947
F25.0
asg5937
(lp5948
F40.0
asg5939
(lp5949
I0
assS'workdir'
p5950
NssS'state'
p5951
I2
sg5932
I150
sS'exp_key'
p5952
NsS'version'
p5953
I0
sS'result'
p5954
(dp5955
S'status'
p5956
S'ok'
p5957
sS'loss'
p5958
F0.0112
ssS'owner'
p5959
NsS'spec'
p5960
Nsa(dp5961
S'refresh_time'
p5962
g10
(S'\x07\xe3\n\x14\x10$\x02\x0c\xbd\xb8'
p5963
tp5964
Rp5965
sS'book_time'
p5966
g10
(S'\x07\xe3\n\x14\x10\x15\x03\x04]0'
p5967
tp5968
Rp5969
sS'misc'
p5970
(dp5971
S'tid'
p5972
I151
sS'idxs'
p5973
(dp5974
S'units1'
p5975
(lp5976
I151
asS'units2'
p5977
(lp5978
I151
asS'batch_size'
p5979
(lp5980
I151
assS'cmd'
p5981
(S'domain_attachment'
p5982
S'FMinIter_Domain'
p5983
tp5984
sS'vals'
p5985
(dp5986
g5975
(lp5987
F40.0
asg5977
(lp5988
F15.0
asg5979
(lp5989
I0
assS'workdir'
p5990
NssS'exp_key'
p5991
NsS'owner'
p5992
NsS'state'
p5993
I2
sS'version'
p5994
I0
sS'result'
p5995
(dp5996
S'status'
p5997
S'ok'
p5998
sS'loss'
p5999
F0.0088
ssg5972
I151
sS'spec'
p6000
Nsa(dp6001
S'refresh_time'
p6002
g10
(S'\x07\xe3\n\x14\x103\x19\r\xc7X'
p6003
tp6004
Rp6005
sS'book_time'
p6006
g10
(S'\x07\xe3\n\x14\x10$\x03\x01O\xf0'
p6007
tp6008
Rp6009
sS'misc'
p6010
(dp6011
S'tid'
p6012
I152
sS'idxs'
p6013
(dp6014
S'units1'
p6015
(lp6016
I152
asS'units2'
p6017
(lp6018
I152
asS'batch_size'
p6019
(lp6020
I152
assS'cmd'
p6021
(S'domain_attachment'
p6022
S'FMinIter_Domain'
p6023
tp6024
sS'vals'
p6025
(dp6026
g6015
(lp6027
F45.0
asg6017
(lp6028
F60.0
asg6019
(lp6029
I0
assS'workdir'
p6030
NssS'state'
p6031
I2
sg6012
I152
sS'exp_key'
p6032
NsS'version'
p6033
I0
sS'result'
p6034
(dp6035
S'status'
p6036
S'ok'
p6037
sS'loss'
p6038
F0.0114
ssS'owner'
p6039
NsS'spec'
p6040
Nsa(dp6041
S'refresh_time'
p6042
g10
(S'\x07\xe3\n\x14\x11\x06\x0b\x08P\xe8'
p6043
tp6044
Rp6045
sS'book_time'
p6046
g10
(S'\x07\xe3\n\x14\x103\x19\x0eg\x80'
p6047
tp6048
Rp6049
sS'misc'
p6050
(dp6051
S'tid'
p6052
I153
sS'idxs'
p6053
(dp6054
S'units1'
p6055
(lp6056
I153
asS'units2'
p6057
(lp6058
I153
asS'batch_size'
p6059
(lp6060
I153
assS'cmd'
p6061
(S'domain_attachment'
p6062
S'FMinIter_Domain'
p6063
tp6064
sS'vals'
p6065
(dp6066
g6055
(lp6067
F30.0
asg6057
(lp6068
F60.0
asg6059
(lp6069
I0
assS'workdir'
p6070
NssS'exp_key'
p6071
NsS'owner'
p6072
NsS'state'
p6073
I2
sS'version'
p6074
I0
sS'result'
p6075
(dp6076
S'status'
p6077
S'ok'
p6078
sS'loss'
p6079
F0.0094
ssg6052
I153
sS'spec'
p6080
Nsa(dp6081
S'refresh_time'
p6082
g10
(S'\x07\xe3\n\x14\x11\x199\n\x19\xf0'
p6083
tp6084
Rp6085
sS'book_time'
p6086
g10
(S'\x07\xe3\n\x14\x11\x06\x0b\x08\xd9\xa0'
p6087
tp6088
Rp6089
sS'misc'
p6090
(dp6091
S'tid'
p6092
I154
sS'idxs'
p6093
(dp6094
S'units1'
p6095
(lp6096
I154
asS'units2'
p6097
(lp6098
I154
asS'batch_size'
p6099
(lp6100
I154
assS'cmd'
p6101
(S'domain_attachment'
p6102
S'FMinIter_Domain'
p6103
tp6104
sS'vals'
p6105
(dp6106
g6095
(lp6107
F95.0
asg6097
(lp6108
F35.0
asg6099
(lp6109
I0
assS'workdir'
p6110
NssS'state'
p6111
I2
sg6092
I154
sS'exp_key'
p6112
NsS'version'
p6113
I0
sS'result'
p6114
(dp6115
S'status'
p6116
S'ok'
p6117
sS'loss'
p6118
F0.0075
ssS'owner'
p6119
NsS'spec'
p6120
Nsa(dp6121
S'refresh_time'
p6122
g10
(S'\x07\xe3\n\x14\x11-\x12\t\xc4\x00'
p6123
tp6124
Rp6125
sS'book_time'
p6126
g10
(S'\x07\xe3\n\x14\x11\x199\n\xa2\xa8'
p6127
tp6128
Rp6129
sS'misc'
p6130
(dp6131
S'tid'
p6132
I155
sS'idxs'
p6133
(dp6134
S'units1'
p6135
(lp6136
I155
asS'units2'
p6137
(lp6138
I155
asS'batch_size'
p6139
(lp6140
I155
assS'cmd'
p6141
(S'domain_attachment'
p6142
S'FMinIter_Domain'
p6143
tp6144
sS'vals'
p6145
(dp6146
g6135
(lp6147
F100.0
asg6137
(lp6148
F20.0
asg6139
(lp6149
I0
assS'workdir'
p6150
NssS'exp_key'
p6151
NsS'owner'
p6152
NsS'state'
p6153
I2
sS'version'
p6154
I0
sS'result'
p6155
(dp6156
S'status'
p6157
S'ok'
p6158
sS'loss'
p6159
F0.0076
ssg6132
I155
sS'spec'
p6160
Nsa(dp6161
S'refresh_time'
p6162
g10
(S'\x07\xe3\n\x14\x12\x00\x05\n\xec\xe0'
p6163
tp6164
Rp6165
sS'book_time'
p6166
g10
(S'\x07\xe3\n\x14\x11-\x12\nk\xf8'
p6167
tp6168
Rp6169
sS'misc'
p6170
(dp6171
S'tid'
p6172
I156
sS'idxs'
p6173
(dp6174
S'units1'
p6175
(lp6176
I156
asS'units2'
p6177
(lp6178
I156
asS'batch_size'
p6179
(lp6180
I156
assS'cmd'
p6181
(S'domain_attachment'
p6182
S'FMinIter_Domain'
p6183
tp6184
sS'vals'
p6185
(dp6186
g6175
(lp6187
F30.0
asg6177
(lp6188
F30.0
asg6179
(lp6189
I0
assS'workdir'
p6190
NssS'state'
p6191
I2
sg6172
I156
sS'exp_key'
p6192
NsS'version'
p6193
I0
sS'result'
p6194
(dp6195
S'status'
p6196
S'ok'
p6197
sS'loss'
p6198
F0.0095
ssS'owner'
p6199
NsS'spec'
p6200
Nsa(dp6201
S'refresh_time'
p6202
g10
(S'\x07\xe3\n\x14\x12\x11\x0f\x04\x9f\x98'
p6203
tp6204
Rp6205
sS'book_time'
p6206
g10
(S'\x07\xe3\n\x14\x12\x00\x05\x0by\x80'
p6207
tp6208
Rp6209
sS'misc'
p6210
(dp6211
S'tid'
p6212
I157
sS'idxs'
p6213
(dp6214
S'units1'
p6215
(lp6216
I157
asS'units2'
p6217
(lp6218
I157
asS'batch_size'
p6219
(lp6220
I157
assS'cmd'
p6221
(S'domain_attachment'
p6222
S'FMinIter_Domain'
p6223
tp6224
sS'vals'
p6225
(dp6226
g6215
(lp6227
F85.0
asg6217
(lp6228
F10.0
asg6219
(lp6229
I0
assS'workdir'
p6230
NssS'exp_key'
p6231
NsS'owner'
p6232
NsS'state'
p6233
I2
sS'version'
p6234
I0
sS'result'
p6235
(dp6236
S'status'
p6237
S'ok'
p6238
sS'loss'
p6239
F0.0098
ssg6212
I157
sS'spec'
p6240
Nsa(dp6241
S'refresh_time'
p6242
g10
(S'\x07\xe3\n\x14\x12\x1d7\t\xb8H'
p6243
tp6244
Rp6245
sS'book_time'
p6246
g10
(S'\x07\xe3\n\x14\x12\x11\x0f\x054\x08'
p6247
tp6248
Rp6249
sS'misc'
p6250
(dp6251
S'tid'
p6252
I158
sS'idxs'
p6253
(dp6254
S'units1'
p6255
(lp6256
I158
asS'units2'
p6257
(lp6258
I158
asS'batch_size'
p6259
(lp6260
I158
assS'cmd'
p6261
(S'domain_attachment'
p6262
S'FMinIter_Domain'
p6263
tp6264
sS'vals'
p6265
(dp6266
g6255
(lp6267
F0.0
asg6257
(lp6268
F55.0
asg6259
(lp6269
I0
assS'workdir'
p6270
NssS'state'
p6271
I2
sg6252
I158
sS'exp_key'
p6272
NsS'version'
p6273
I0
sS'result'
p6274
(dp6275
S'status'
p6276
S'ok'
p6277
sS'loss'
p6278
F0.0368
ssS'owner'
p6279
NsS'spec'
p6280
Nsa(dp6281
S'refresh_time'
p6282
g10
(S'\x07\xe3\n\x14\x12/\x13\x03\x01\x88'
p6283
tp6284
Rp6285
sS'book_time'
p6286
g10
(S'\x07\xe3\n\x14\x12\x1d7\nA\x00'
p6287
tp6288
Rp6289
sS'misc'
p6290
(dp6291
S'tid'
p6292
I159
sS'idxs'
p6293
(dp6294
S'units1'
p6295
(lp6296
I159
asS'units2'
p6297
(lp6298
I159
asS'batch_size'
p6299
(lp6300
I159
assS'cmd'
p6301
(S'domain_attachment'
p6302
S'FMinIter_Domain'
p6303
tp6304
sS'vals'
p6305
(dp6306
g6295
(lp6307
F95.0
asg6297
(lp6308
F5.0
asg6299
(lp6309
I0
assS'workdir'
p6310
NssS'exp_key'
p6311
NsS'owner'
p6312
NsS'state'
p6313
I2
sS'version'
p6314
I0
sS'result'
p6315
(dp6316
S'status'
p6317
S'ok'
p6318
sS'loss'
p6319
F0.0081
ssg6292
I159
sS'spec'
p6320
Nsa(dp6321
S'refresh_time'
p6322
g10
(S'\x07\xe3\n\x14\x13\x03.\x03 \xc8'
p6323
tp6324
Rp6325
sS'book_time'
p6326
g10
(S'\x07\xe3\n\x14\x12/\x13\x03\x92\x10'
p6327
tp6328
Rp6329
sS'misc'
p6330
(dp6331
S'tid'
p6332
I160
sS'idxs'
p6333
(dp6334
S'units1'
p6335
(lp6336
I160
asS'units2'
p6337
(lp6338
I160
asS'batch_size'
p6339
(lp6340
I160
assS'cmd'
p6341
(S'domain_attachment'
p6342
S'FMinIter_Domain'
p6343
tp6344
sS'vals'
p6345
(dp6346
g6335
(lp6347
F60.0
asg6337
(lp6348
F60.0
asg6339
(lp6349
I0
assS'workdir'
p6350
NssS'state'
p6351
I2
sg6332
I160
sS'exp_key'
p6352
NsS'version'
p6353
I0
sS'result'
p6354
(dp6355
S'status'
p6356
S'ok'
p6357
sS'loss'
p6358
F0.0082
ssS'owner'
p6359
NsS'spec'
p6360
Nsa(dp6361
S'refresh_time'
p6362
g10
(S'\x07\xe3\n\x14\x13\x15:\t\x04\x98'
p6363
tp6364
Rp6365
sS'book_time'
p6366
g10
(S'\x07\xe3\n\x14\x13\x03.\x03\xc8\xc0'
p6367
tp6368
Rp6369
sS'misc'
p6370
(dp6371
S'tid'
p6372
I161
sS'idxs'
p6373
(dp6374
S'units1'
p6375
(lp6376
I161
asS'units2'
p6377
(lp6378
I161
asS'batch_size'
p6379
(lp6380
I161
assS'cmd'
p6381
(S'domain_attachment'
p6382
S'FMinIter_Domain'
p6383
tp6384
sS'vals'
p6385
(dp6386
g6375
(lp6387
F55.0
asg6377
(lp6388
F95.0
asg6379
(lp6389
I0
assS'workdir'
p6390
NssS'exp_key'
p6391
NsS'owner'
p6392
NsS'state'
p6393
I2
sS'version'
p6394
I0
sS'result'
p6395
(dp6396
S'status'
p6397
S'ok'
p6398
sS'loss'
p6399
F0.0103
ssg6372
I161
sS'spec'
p6400
Nsa(dp6401
S'refresh_time'
p6402
g10
(S'\x07\xe3\n\x14\x13(\x12\x08AH'
p6403
tp6404
Rp6405
sS'book_time'
p6406
g10
(S'\x07\xe3\n\x14\x13\x15:\t\x918'
p6407
tp6408
Rp6409
sS'misc'
p6410
(dp6411
S'tid'
p6412
I162
sS'idxs'
p6413
(dp6414
S'units1'
p6415
(lp6416
I162
asS'units2'
p6417
(lp6418
I162
asS'batch_size'
p6419
(lp6420
I162
assS'cmd'
p6421
(S'domain_attachment'
p6422
S'FMinIter_Domain'
p6423
tp6424
sS'vals'
p6425
(dp6426
g6415
(lp6427
F65.0
asg6417
(lp6428
F80.0
asg6419
(lp6429
I0
assS'workdir'
p6430
NssS'state'
p6431
I2
sg6412
I162
sS'exp_key'
p6432
NsS'version'
p6433
I0
sS'result'
p6434
(dp6435
S'status'
p6436
S'ok'
p6437
sS'loss'
p6438
F0.0095
ssS'owner'
p6439
NsS'spec'
p6440
Nsa(dp6441
S'refresh_time'
p6442
g10
(S'\x07\xe3\n\x14\x138\x08\x03\xef\xd0'
p6443
tp6444
Rp6445
sS'book_time'
p6446
g10
(S'\x07\xe3\n\x14\x13(\x12\x08\xd1\xd0'
p6447
tp6448
Rp6449
sS'misc'
p6450
(dp6451
S'tid'
p6452
I163
sS'idxs'
p6453
(dp6454
S'units1'
p6455
(lp6456
I163
asS'units2'
p6457
(lp6458
I163
asS'batch_size'
p6459
(lp6460
I163
assS'cmd'
p6461
(S'domain_attachment'
p6462
S'FMinIter_Domain'
p6463
tp6464
sS'vals'
p6465
(dp6466
g6455
(lp6467
F40.0
asg6457
(lp6468
F90.0
asg6459
(lp6469
I0
assS'workdir'
p6470
NssS'exp_key'
p6471
NsS'owner'
p6472
NsS'state'
p6473
I2
sS'version'
p6474
I0
sS'result'
p6475
(dp6476
S'status'
p6477
S'ok'
p6478
sS'loss'
p6479
F0.0087
ssg6452
I163
sS'spec'
p6480
Nsa(dp6481
S'refresh_time'
p6482
g10
(S'\x07\xe3\n\x14\x14\x0c\x14\x030h'
p6483
tp6484
Rp6485
sS'book_time'
p6486
g10
(S'\x07\xe3\n\x14\x138\x08\x04\x80X'
p6487
tp6488
Rp6489
sS'misc'
p6490
(dp6491
S'tid'
p6492
I164
sS'idxs'
p6493
(dp6494
S'units1'
p6495
(lp6496
I164
asS'units2'
p6497
(lp6498
I164
asS'batch_size'
p6499
(lp6500
I164
assS'cmd'
p6501
(S'domain_attachment'
p6502
S'FMinIter_Domain'
p6503
tp6504
sS'vals'
p6505
(dp6506
g6495
(lp6507
F55.0
asg6497
(lp6508
F10.0
asg6499
(lp6509
I0
assS'workdir'
p6510
NssS'state'
p6511
I2
sg6492
I164
sS'exp_key'
p6512
NsS'version'
p6513
I0
sS'result'
p6514
(dp6515
S'status'
p6516
S'ok'
p6517
sS'loss'
p6518
F0.0099
ssS'owner'
p6519
NsS'spec'
p6520
Nsa(dp6521
S'refresh_time'
p6522
g10
(S'\x07\xe3\n\x14\x14\x1d\x08\x03\xc8\xc0'
p6523
tp6524
Rp6525
sS'book_time'
p6526
g10
(S'\x07\xe3\n\x14\x14\x0c\x14\x03\xe4\x18'
p6527
tp6528
Rp6529
sS'misc'
p6530
(dp6531
S'tid'
p6532
I165
sS'idxs'
p6533
(dp6534
S'units1'
p6535
(lp6536
I165
asS'units2'
p6537
(lp6538
I165
asS'batch_size'
p6539
(lp6540
I165
assS'cmd'
p6541
(S'domain_attachment'
p6542
S'FMinIter_Domain'
p6543
tp6544
sS'vals'
p6545
(dp6546
g6535
(lp6547
F60.0
asg6537
(lp6548
F55.0
asg6539
(lp6549
I0
assS'workdir'
p6550
NssS'exp_key'
p6551
NsS'owner'
p6552
NsS'state'
p6553
I2
sS'version'
p6554
I0
sS'result'
p6555
(dp6556
S'status'
p6557
S'ok'
p6558
sS'loss'
p6559
F0.0082
ssg6532
I165
sS'spec'
p6560
Nsa(dp6561
S'refresh_time'
p6562
g10
(S'\x07\xe3\n\x14\x14,"\r\xc3p'
p6563
tp6564
Rp6565
sS'book_time'
p6566
g10
(S'\x07\xe3\n\x14\x14\x1d\x08\x04x\x88'
p6567
tp6568
Rp6569
sS'misc'
p6570
(dp6571
S'tid'
p6572
I166
sS'idxs'
p6573
(dp6574
S'units1'
p6575
(lp6576
I166
asS'units2'
p6577
(lp6578
I166
asS'batch_size'
p6579
(lp6580
I166
assS'cmd'
p6581
(S'domain_attachment'
p6582
S'FMinIter_Domain'
p6583
tp6584
sS'vals'
p6585
(dp6586
g6575
(lp6587
F35.0
asg6577
(lp6588
F90.0
asg6579
(lp6589
I0
assS'workdir'
p6590
NssS'state'
p6591
I2
sg6572
I166
sS'exp_key'
p6592
NsS'version'
p6593
I0
sS'result'
p6594
(dp6595
S'status'
p6596
S'ok'
p6597
sS'loss'
p6598
F0.0101
ssS'owner'
p6599
NsS'spec'
p6600
NsasS'_exp_key'
p6601
NsS'attachments'
p6602
(dp6603
sS'_dynamic_trials'
p6604
(lp6605
g8
ag49
ag67
ag85
ag103
ag121
ag161
ag201
ag241
ag281
ag321
ag361
ag401
ag441
ag481
ag521
ag561
ag601
ag641
ag681
ag721
ag761
ag801
ag841
ag881
ag921
ag961
ag1001
ag1041
ag1081
ag1121
ag1161
ag1201
ag1241
ag1281
ag1321
ag1361
ag1401
ag1441
ag1481
ag1521
ag1561
ag1601
ag1641
ag1681
ag1721
ag1761
ag1801
ag1841
ag1881
ag1921
ag1961
ag2001
ag2041
ag2081
ag2121
ag2161
ag2201
ag2241
ag2281
ag2321
ag2361
ag2401
ag2441
ag2481
ag2521
ag2561
ag2601
ag2641
ag2681
ag2721
ag2761
ag2801
ag2841
ag2881
ag2921
ag2961
ag3001
ag3041
ag3081
ag3121
ag3161
ag3201
ag3241
ag3281
ag3321
ag3361
ag3401
ag3441
ag3481
ag3521
ag3561
ag3601
ag3641
ag3681
ag3721
ag3761
ag3801
ag3841
ag3881
ag3921
ag3961
ag4001
ag4041
ag4081
ag4121
ag4161
ag4201
ag4241
ag4281
ag4321
ag4361
ag4401
ag4441
ag4481
ag4521
ag4561
ag4601
ag4641
ag4681
ag4721
ag4761
ag4801
ag4841
ag4881
ag4921
ag4961
ag5001
ag5041
ag5081
ag5121
ag5161
ag5201
ag5241
ag5281
ag5321
ag5361
ag5401
ag5441
ag5481
ag5521
ag5561
ag5601
ag5641
ag5681
ag5721
ag5761
ag5801
ag5841
ag5881
ag5921
ag5961
ag6001
ag6041
ag6081
ag6121
ag6161
ag6201
ag6241
ag6281
ag6321
ag6361
ag6401
ag6441
ag6481
ag6521
ag6561
asS'_ids'
p6606
c__builtin__
set
p6607
((lp6608
I0
aI1
aI2
aI3
aI4
aI5
aI6
aI7
aI8
aI9
aI10
aI11
aI12
aI13
aI14
aI15
aI16
aI17
aI18
aI19
aI20
aI21
aI22
aI23
aI24
aI25
aI26
aI27
aI28
aI29
aI30
aI31
aI32
aI33
aI34
aI35
aI36
aI37
aI38
aI39
aI40
aI41
aI42
aI43
aI44
aI45
aI46
aI47
aI48
aI49
aI50
aI51
aI52
aI53
aI54
aI55
aI56
aI57
aI58
aI59
aI60
aI61
aI62
aI63
aI64
aI65
aI66
aI67
aI68
aI69
aI70
aI71
aI72
aI73
aI74
aI75
aI76
aI77
aI78
aI79
aI80
aI81
aI82
aI83
aI84
aI85
aI86
aI87
aI88
aI89
aI90
aI91
aI92
aI93
aI94
aI95
aI96
aI97
aI98
aI99
aI100
aI101
aI102
aI103
aI104
aI105
aI106
aI107
aI108
aI109
aI110
aI111
aI112
aI113
aI114
aI115
aI116
aI117
aI118
aI119
aI120
aI121
aI122
aI123
aI124
aI125
aI126
aI127
aI128
aI129
aI130
aI131
aI132
aI133
aI134
aI135
aI136
aI137
aI138
aI139
aI140
aI141
aI142
aI143
aI144
aI145
aI146
aI147
aI148
aI149
aI150
aI151
aI152
aI153
aI154
aI155
aI156
aI157
aI158
aI159
aI160
aI161
aI162
aI163
aI164
aI165
aI166
atp6609
Rp6610
sb.