ccopy_reg
_reconstructor
p0
(chyperopt.base
Trials
p1
c__builtin__
object
p2
Ntp3
Rp4
(dp5
S'_trials'
p6
(lp7
(dp8
S'refresh_time'
p9
cdatetime
datetime
p10
(S'\x07\xe3\n\r\x14\t\x1c\x07Z\xd0'
p11
tp12
Rp13
sS'book_time'
p14
g10
(S'\x07\xe3\n\r\x0f\x11\x1b\x00J8'
p15
tp16
Rp17
sS'misc'
p18
(dp19
S'tid'
p20
I0
sS'idxs'
p21
(dp22
S'units1'
p23
(lp24
I0
asS'units3'
p25
(lp26
I0
asS'units2'
p27
(lp28
I0
asS'batch_size'
p29
(lp30
I0
assS'cmd'
p31
(S'domain_attachment'
p32
S'FMinIter_Domain'
p33
tp34
sS'vals'
p35
(dp36
g23
(lp37
F100.0
asg25
(lp38
F60.0
asg27
(lp39
F60.0
asg29
(lp40
I0
assS'workdir'
p41
NssS'exp_key'
p42
NsS'owner'
p43
NsS'state'
p44
I2
sS'version'
p45
I0
sS'result'
p46
(dp47
S'status'
p48
S'ok'
p49
sS'loss'
p50
F0.0074
ssg20
I0
sS'spec'
p51
Nsa(dp52
g9
g10
(S'\x07\xe3\n\r\x16\x14\x19\x00\xa7\xf8'
p53
tp54
Rp55
sg14
g10
(S'\x07\xe3\n\r\x14\t\x1c\x07}\xf8'
p56
tp57
Rp58
sg18
(dp59
g20
I1
sg21
(dp60
g23
(lp61
I1
asg25
(lp62
I1
asg27
(lp63
I1
asg29
(lp64
I1
assg31
(g32
g33
tp65
sg35
(dp66
g23
(lp67
F40.0
asg25
(lp68
F40.0
asg27
(lp69
F100.0
asg29
(lp70
I0
assg41
Nssg42
Nsg43
Nsg44
I2
sg45
I0
sg46
(dp71
g48
g49
sg50
F0.0083
ssg20
I1
sg51
Nsa(dp72
g9
g10
(S'\x07\xe3\n\r\x17\x15!\x05\x82('
p73
tp74
Rp75
sg14
g10
(S'\x07\xe3\n\r\x16\x14\x19\x00\xb7\x98'
p76
tp77
Rp78
sg18
(dp79
g20
I2
sg21
(dp80
g23
(lp81
I2
asg25
(lp82
I2
asg27
(lp83
I2
asg29
(lp84
I2
assg31
(g32
g33
tp85
sg35
(dp86
g23
(lp87
F20.0
asg25
(lp88
F40.0
asg27
(lp89
F40.0
asg29
(lp90
I0
assg41
Nssg42
Nsg43
Nsg44
I2
sg45
I0
sg46
(dp91
g48
g49
sg50
F0.014
ssg20
I2
sg51
Nsa(dp92
g9
g10
(S'\x07\xe3\n\x0e\x01\x03\x17\x07K0'
p93
tp94
Rp95
sg14
g10
(S'\x07\xe3\n\r\x17\x15!\x05\x99\x98'
p96
tp97
Rp98
sg18
(dp99
g20
I3
sg21
(dp100
g23
(lp101
I3
asg25
(lp102
I3
asg27
(lp103
I3
asg29
(lp104
I3
assg31
(g32
g33
tp105
sg35
(dp106
g23
(lp107
F40.0
asg25
(lp108
F80.0
asg27
(lp109
F40.0
asg29
(lp110
I0
assg41
Nssg42
Nsg43
Nsg44
I2
sg45
I0
sg46
(dp111
g48
g49
sg50
F0.0079
ssg20
I3
sg51
Nsa(dp112
g9
g10
(S'\x07\xe3\n\x0e\x02\x06)\x06\x87\xe0'
p113
tp114
Rp115
sg14
g10
(S'\x07\xe3\n\x0e\x01\x03\x17\x07z\x10'
p116
tp117
Rp118
sg18
(dp119
g20
I4
sg21
(dp120
g23
(lp121
I4
asg25
(lp122
I4
asg27
(lp123
I4
asg29
(lp124
I4
assg31
(g32
g33
tp125
sg35
(dp126
g23
(lp127
F20.0
asg25
(lp128
F20.0
asg27
(lp129
F40.0
asg29
(lp130
I0
assg41
Nssg42
Nsg43
Nsg44
I2
sg45
I0
sg46
(dp131
g48
g49
sg50
F0.014
ssg20
I4
sg51
Nsa(dp132
S'refresh_time'
p133
g10
(S'\x07\xe3\n\x0e\x04\x10!\x07\xcc\x18'
p134
tp135
Rp136
sS'book_time'
p137
g10
(S'\x07\xe3\n\x0e\x02\x06)\x06\xe1\xb8'
p138
tp139
Rp140
sS'misc'
p141
(dp142
S'tid'
p143
I5
sS'idxs'
p144
(dp145
S'units1'
p146
(lp147
I5
asS'units3'
p148
(lp149
I5
asS'units2'
p150
(lp151
I5
asS'batch_size'
p152
(lp153
I5
assS'cmd'
p154
(S'domain_attachment'
p155
S'FMinIter_Domain'
p156
tp157
sS'vals'
p158
(dp159
g146
(lp160
F100.0
asg148
(lp161
F40.0
asg150
(lp162
F0.0
asg152
(lp163
I0
assS'workdir'
p164
NssS'state'
p165
I2
sg143
I5
sS'exp_key'
p166
NsS'version'
p167
I0
sS'result'
p168
(dp169
S'status'
p170
S'ok'
p171
sS'loss'
p172
F0.0073
ssS'owner'
p173
NsS'spec'
p174
Nsa(dp175
S'refresh_time'
p176
g10
(S'\x07\xe3\n\x0e\x06\x1e\x17\t\xd3\xa0'
p177
tp178
Rp179
sS'book_time'
p180
g10
(S'\x07\xe3\n\x0e\x04\x10!\x08M\x00'
p181
tp182
Rp183
sS'misc'
p184
(dp185
S'tid'
p186
I6
sS'idxs'
p187
(dp188
S'units1'
p189
(lp190
I6
asS'units3'
p191
(lp192
I6
asS'units2'
p193
(lp194
I6
asS'batch_size'
p195
(lp196
I6
assS'cmd'
p197
(S'domain_attachment'
p198
S'FMinIter_Domain'
p199
tp200
sS'vals'
p201
(dp202
g189
(lp203
F80.0
asg191
(lp204
F20.0
asg193
(lp205
F40.0
asg195
(lp206
I0
assS'workdir'
p207
NssS'exp_key'
p208
NsS'owner'
p209
NsS'state'
p210
I2
sS'version'
p211
I0
sS'result'
p212
(dp213
S'status'
p214
S'ok'
p215
sS'loss'
p216
F0.0072
ssg186
I6
sS'spec'
p217
Nsa(dp218
S'refresh_time'
p219
g10
(S'\x07\xe3\n\x10\x0f\n\x14\x0c\x92\xc0'
p220
tp221
Rp222
sS'book_time'
p223
g10
(S'\x07\xe3\n\x10\x0e\x1b\x1b\n\xa6\x90'
p224
tp225
Rp226
sS'misc'
p227
(dp228
S'tid'
p229
I7
sS'idxs'
p230
(dp231
S'units1'
p232
(lp233
I7
asS'units3'
p234
(lp235
I7
asS'units2'
p236
(lp237
I7
asS'batch_size'
p238
(lp239
I7
assS'cmd'
p240
(S'domain_attachment'
p241
S'FMinIter_Domain'
p242
tp243
sS'vals'
p244
(dp245
g232
(lp246
F40.0
asg234
(lp247
F0.0
asg236
(lp248
F40.0
asg238
(lp249
I0
assS'workdir'
p250
NssS'state'
p251
I2
sg229
I7
sS'exp_key'
p252
NsS'version'
p253
I0
sS'result'
p254
(dp255
S'status'
p256
S'ok'
p257
sS'loss'
p258
F0.0082
ssS'owner'
p259
NsS'spec'
p260
Nsa(dp261
S'refresh_time'
p262
g10
(S'\x07\xe3\n\x10\x0f6\x12\x02I\xf0'
p263
tp264
Rp265
sS'book_time'
p266
g10
(S'\x07\xe3\n\x10\x0f\n\x14\x0c\xe0\xe0'
p267
tp268
Rp269
sS'misc'
p270
(dp271
S'tid'
p272
I8
sS'idxs'
p273
(dp274
S'units1'
p275
(lp276
I8
asS'units3'
p277
(lp278
I8
asS'units2'
p279
(lp280
I8
asS'batch_size'
p281
(lp282
I8
assS'cmd'
p283
(S'domain_attachment'
p284
S'FMinIter_Domain'
p285
tp286
sS'vals'
p287
(dp288
g275
(lp289
F40.0
asg277
(lp290
F20.0
asg279
(lp291
F100.0
asg281
(lp292
I0
assS'workdir'
p293
NssS'exp_key'
p294
NsS'owner'
p295
NsS'state'
p296
I2
sS'version'
p297
I0
sS'result'
p298
(dp299
S'status'
p300
S'ok'
p301
sS'loss'
p302
F0.0085
ssg272
I8
sS'spec'
p303
Nsa(dp304
S'refresh_time'
p305
g10
(S'\x07\xe3\n\x10\x10%\x1f\x0e!0'
p306
tp307
Rp308
sS'book_time'
p309
g10
(S'\x07\xe3\n\x10\x0f6\x12\x02\x9f\xe0'
p310
tp311
Rp312
sS'misc'
p313
(dp314
S'tid'
p315
I9
sS'idxs'
p316
(dp317
S'units1'
p318
(lp319
I9
asS'units3'
p320
(lp321
I9
asS'units2'
p322
(lp323
I9
asS'batch_size'
p324
(lp325
I9
assS'cmd'
p326
(S'domain_attachment'
p327
S'FMinIter_Domain'
p328
tp329
sS'vals'
p330
(dp331
g318
(lp332
F20.0
asg320
(lp333
F0.0
asg322
(lp334
F20.0
asg324
(lp335
I0
assS'workdir'
p336
NssS'state'
p337
I2
sg315
I9
sS'exp_key'
p338
NsS'version'
p339
I0
sS'result'
p340
(dp341
S'status'
p342
S'ok'
p343
sS'loss'
p344
F0.0136
ssS'owner'
p345
NsS'spec'
p346
Nsa(dp347
S'refresh_time'
p348
g10
(S'\x07\xe3\n\x10\x11\x14\x16\x0b\x9c\xa8'
p349
tp350
Rp351
sS'book_time'
p352
g10
(S'\x07\xe3\n\x10\x10%\x1f\x0ekh'
p353
tp354
Rp355
sS'misc'
p356
(dp357
S'tid'
p358
I10
sS'idxs'
p359
(dp360
S'units1'
p361
(lp362
I10
asS'units3'
p363
(lp364
I10
asS'units2'
p365
(lp366
I10
asS'batch_size'
p367
(lp368
I10
assS'cmd'
p369
(S'domain_attachment'
p370
S'FMinIter_Domain'
p371
tp372
sS'vals'
p373
(dp374
g361
(lp375
F20.0
asg363
(lp376
F20.0
asg365
(lp377
F80.0
asg367
(lp378
I0
assS'workdir'
p379
NssS'exp_key'
p380
NsS'owner'
p381
NsS'state'
p382
I2
sS'version'
p383
I0
sS'result'
p384
(dp385
S'status'
p386
S'ok'
p387
sS'loss'
p388
F0.0133
ssg358
I10
sS'spec'
p389
Nsa(dp390
S'refresh_time'
p391
g10
(S'\x07\xe3\n\x10\x12\x03\x1d\no\xe0'
p392
tp393
Rp394
sS'book_time'
p395
g10
(S'\x07\xe3\n\x10\x11\x14\x16\x0b\xfeP'
p396
tp397
Rp398
sS'misc'
p399
(dp400
S'tid'
p401
I11
sS'idxs'
p402
(dp403
S'units1'
p404
(lp405
I11
asS'units3'
p406
(lp407
I11
asS'units2'
p408
(lp409
I11
asS'batch_size'
p410
(lp411
I11
assS'cmd'
p412
(S'domain_attachment'
p413
S'FMinIter_Domain'
p414
tp415
sS'vals'
p416
(dp417
g404
(lp418
F40.0
asg406
(lp419
F100.0
asg408
(lp420
F60.0
asg410
(lp421
I0
assS'workdir'
p422
NssS'state'
p423
I2
sg401
I11
sS'exp_key'
p424
NsS'version'
p425
I0
sS'result'
p426
(dp427
S'status'
p428
S'ok'
p429
sS'loss'
p430
F0.008
ssS'owner'
p431
NsS'spec'
p432
Nsa(dp433
S'refresh_time'
p434
g10
(S'\x07\xe3\n\x10\x12-#\r\xa8\x18'
p435
tp436
Rp437
sS'book_time'
p438
g10
(S'\x07\xe3\n\x10\x12\x03\x1d\n\xc9\xb8'
p439
tp440
Rp441
sS'misc'
p442
(dp443
S'tid'
p444
I12
sS'idxs'
p445
(dp446
S'units1'
p447
(lp448
I12
asS'units3'
p449
(lp450
I12
asS'units2'
p451
(lp452
I12
asS'batch_size'
p453
(lp454
I12
assS'cmd'
p455
(S'domain_attachment'
p456
S'FMinIter_Domain'
p457
tp458
sS'vals'
p459
(dp460
g447
(lp461
F20.0
asg449
(lp462
F20.0
asg451
(lp463
F20.0
asg453
(lp464
I0
assS'workdir'
p465
NssS'exp_key'
p466
NsS'owner'
p467
NsS'state'
p468
I2
sS'version'
p469
I0
sS'result'
p470
(dp471
S'status'
p472
S'ok'
p473
sS'loss'
p474
F0.0136
ssg444
I12
sS'spec'
p475
Nsa(dp476
S'refresh_time'
p477
g10
(S'\x07\xe3\n\x10\x13\x1c6\r\x07\xf0'
p478
tp479
Rp480
sS'book_time'
p481
g10
(S'\x07\xe3\n\x10\x12-#\x0e\x05\xd8'
p482
tp483
Rp484
sS'misc'
p485
(dp486
S'tid'
p487
I13
sS'idxs'
p488
(dp489
S'units1'
p490
(lp491
I13
asS'units3'
p492
(lp493
I13
asS'units2'
p494
(lp495
I13
asS'batch_size'
p496
(lp497
I13
assS'cmd'
p498
(S'domain_attachment'
p499
S'FMinIter_Domain'
p500
tp501
sS'vals'
p502
(dp503
g490
(lp504
F40.0
asg492
(lp505
F60.0
asg494
(lp506
F60.0
asg496
(lp507
I0
assS'workdir'
p508
NssS'state'
p509
I2
sg487
I13
sS'exp_key'
p510
NsS'version'
p511
I0
sS'result'
p512
(dp513
S'status'
p514
S'ok'
p515
sS'loss'
p516
F0.0079
ssS'owner'
p517
NsS'spec'
p518
Nsa(dp519
S'refresh_time'
p520
g10
(S'\x07\xe3\n\x10\x14\x0b(\x01\xa1\xf8'
p521
tp522
Rp523
sS'book_time'
p524
g10
(S'\x07\xe3\n\x10\x13\x1c6\ruP'
p525
tp526
Rp527
sS'misc'
p528
(dp529
S'tid'
p530
I14
sS'idxs'
p531
(dp532
S'units1'
p533
(lp534
I14
asS'units3'
p535
(lp536
I14
asS'units2'
p537
(lp538
I14
asS'batch_size'
p539
(lp540
I14
assS'cmd'
p541
(S'domain_attachment'
p542
S'FMinIter_Domain'
p543
tp544
sS'vals'
p545
(dp546
g533
(lp547
F40.0
asg535
(lp548
F80.0
asg537
(lp549
F80.0
asg539
(lp550
I0
assS'workdir'
p551
NssS'exp_key'
p552
NsS'owner'
p553
NsS'state'
p554
I2
sS'version'
p555
I0
sS'result'
p556
(dp557
S'status'
p558
S'ok'
p559
sS'loss'
p560
F0.0079
ssg530
I14
sS'spec'
p561
Nsa(dp562
S'refresh_time'
p563
g10
(S'\x07\xe3\n\x10\x148\x0c\n\x93\x08'
p564
tp565
Rp566
sS'book_time'
p567
g10
(S'\x07\xe3\n\x10\x14\x0b(\x01\xfb\xd0'
p568
tp569
Rp570
sS'misc'
p571
(dp572
S'tid'
p573
I15
sS'idxs'
p574
(dp575
S'units1'
p576
(lp577
I15
asS'units3'
p578
(lp579
I15
asS'units2'
p580
(lp581
I15
asS'batch_size'
p582
(lp583
I15
assS'cmd'
p584
(S'domain_attachment'
p585
S'FMinIter_Domain'
p586
tp587
sS'vals'
p588
(dp589
g576
(lp590
F80.0
asg578
(lp591
F100.0
asg580
(lp592
F40.0
asg582
(lp593
I0
assS'workdir'
p594
NssS'state'
p595
I2
sg573
I15
sS'exp_key'
p596
NsS'version'
p597
I0
sS'result'
p598
(dp599
S'status'
p600
S'ok'
p601
sS'loss'
p602
F0.0077
ssS'owner'
p603
NsS'spec'
p604
Nsa(dp605
S'refresh_time'
p606
g10
(S"\x07\xe3\n\x10\x15'6\x0e\x96`"
p607
tp608
Rp609
sS'book_time'
p610
g10
(S'\x07\xe3\n\x10\x148\x0c\n\xf4\xb0'
p611
tp612
Rp613
sS'misc'
p614
(dp615
S'tid'
p616
I16
sS'idxs'
p617
(dp618
S'units1'
p619
(lp620
I16
asS'units3'
p621
(lp622
I16
asS'units2'
p623
(lp624
I16
asS'batch_size'
p625
(lp626
I16
assS'cmd'
p627
(S'domain_attachment'
p628
S'FMinIter_Domain'
p629
tp630
sS'vals'
p631
(dp632
g619
(lp633
F60.0
asg621
(lp634
F20.0
asg623
(lp635
F0.0
asg625
(lp636
I0
assS'workdir'
p637
NssS'exp_key'
p638
NsS'owner'
p639
NsS'state'
p640
I2
sS'version'
p641
I0
sS'result'
p642
(dp643
S'status'
p644
S'ok'
p645
sS'loss'
p646
F0.0078
ssg616
I16
sS'spec'
p647
Nsa(dp648
S'refresh_time'
p649
g10
(S'\x07\xe3\n\x10\x16\x17\t\t\xe3@'
p650
tp651
Rp652
sS'book_time'
p653
g10
(S"\x07\xe3\n\x10\x15'6\x0f\x13`"
p654
tp655
Rp656
sS'misc'
p657
(dp658
S'tid'
p659
I17
sS'idxs'
p660
(dp661
S'units1'
p662
(lp663
I17
asS'units3'
p664
(lp665
I17
asS'units2'
p666
(lp667
I17
asS'batch_size'
p668
(lp669
I17
assS'cmd'
p670
(S'domain_attachment'
p671
S'FMinIter_Domain'
p672
tp673
sS'vals'
p674
(dp675
g662
(lp676
F60.0
asg664
(lp677
F40.0
asg666
(lp678
F20.0
asg668
(lp679
I0
assS'workdir'
p680
NssS'state'
p681
I2
sg659
I17
sS'exp_key'
p682
NsS'version'
p683
I0
sS'result'
p684
(dp685
S'status'
p686
S'ok'
p687
sS'loss'
p688
F0.0077
ssS'owner'
p689
NsS'spec'
p690
Nsa(dp691
S'refresh_time'
p692
g10
(S'\x07\xe3\n\x10\x17\x06(\x02\x84\x88'
p693
tp694
Rp695
sS'book_time'
p696
g10
(S'\x07\xe3\n\x10\x16\x17\t\n1`'
p697
tp698
Rp699
sS'misc'
p700
(dp701
S'tid'
p702
I18
sS'idxs'
p703
(dp704
S'units1'
p705
(lp706
I18
asS'units3'
p707
(lp708
I18
asS'units2'
p709
(lp710
I18
asS'batch_size'
p711
(lp712
I18
assS'cmd'
p713
(S'domain_attachment'
p714
S'FMinIter_Domain'
p715
tp716
sS'vals'
p717
(dp718
g705
(lp719
F40.0
asg707
(lp720
F0.0
asg709
(lp721
F100.0
asg711
(lp722
I0
assS'workdir'
p723
NssS'exp_key'
p724
NsS'owner'
p725
NsS'state'
p726
I2
sS'version'
p727
I0
sS'result'
p728
(dp729
S'status'
p730
S'ok'
p731
sS'loss'
p732
F0.0085
ssg702
I18
sS'spec'
p733
Nsa(dp734
S'refresh_time'
p735
g10
(S'\x07\xe3\n\x10\x172 \x03\xd0\x90'
p736
tp737
Rp738
sS'book_time'
p739
g10
(S'\x07\xe3\n\x10\x17\x06(\x02\xf1\xe8'
p740
tp741
Rp742
sS'misc'
p743
(dp744
S'tid'
p745
I19
sS'idxs'
p746
(dp747
S'units1'
p748
(lp749
I19
asS'units3'
p750
(lp751
I19
asS'units2'
p752
(lp753
I19
asS'batch_size'
p754
(lp755
I19
assS'cmd'
p756
(S'domain_attachment'
p757
S'FMinIter_Domain'
p758
tp759
sS'vals'
p760
(dp761
g748
(lp762
F20.0
asg750
(lp763
F60.0
asg752
(lp764
F80.0
asg754
(lp765
I0
assS'workdir'
p766
NssS'state'
p767
I2
sg745
I19
sS'exp_key'
p768
NsS'version'
p769
I0
sS'result'
p770
(dp771
S'status'
p772
S'ok'
p773
sS'loss'
p774
F0.0131
ssS'owner'
p775
NsS'spec'
p776
Nsa(dp777
S'refresh_time'
p778
g10
(S'\x07\xe3\n\x11\x00 $\r\xd3\x10'
p779
tp780
Rp781
sS'book_time'
p782
g10
(S'\x07\xe3\n\x10\x172 \x04]0'
p783
tp784
Rp785
sS'misc'
p786
(dp787
S'tid'
p788
I20
sS'idxs'
p789
(dp790
S'units1'
p791
(lp792
I20
asS'units3'
p793
(lp794
I20
asS'units2'
p795
(lp796
I20
asS'batch_size'
p797
(lp798
I20
assS'cmd'
p799
(S'domain_attachment'
p800
S'FMinIter_Domain'
p801
tp802
sS'vals'
p803
(dp804
g791
(lp805
F20.0
asg793
(lp806
F80.0
asg795
(lp807
F20.0
asg797
(lp808
I0
assS'workdir'
p809
NssS'exp_key'
p810
NsS'owner'
p811
NsS'state'
p812
I2
sS'version'
p813
I0
sS'result'
p814
(dp815
S'status'
p816
S'ok'
p817
sS'loss'
p818
F0.0135
ssg788
I20
sS'spec'
p819
Nsa(dp820
S'refresh_time'
p821
g10
(S'\x07\xe3\n\x11\x01\x10\x02\nP\xa0'
p822
tp823
Rp824
sS'book_time'
p825
g10
(S'\x07\xe3\n\x11\x00 $\x0e_\xb0'
p826
tp827
Rp828
sS'misc'
p829
(dp830
S'tid'
p831
I21
sS'idxs'
p832
(dp833
S'units1'
p834
(lp835
I21
asS'units3'
p836
(lp837
I21
asS'units2'
p838
(lp839
I21
asS'batch_size'
p840
(lp841
I21
assS'cmd'
p842
(S'domain_attachment'
p843
S'FMinIter_Domain'
p844
tp845
sS'vals'
p846
(dp847
g834
(lp848
F60.0
asg836
(lp849
F60.0
asg838
(lp850
F80.0
asg840
(lp851
I0
assS'workdir'
p852
NssS'state'
p853
I2
sg831
I21
sS'exp_key'
p854
NsS'version'
p855
I0
sS'result'
p856
(dp857
S'status'
p858
S'ok'
p859
sS'loss'
p860
F0.0076
ssS'owner'
p861
NsS'spec'
p862
Nsa(dp863
S'refresh_time'
p864
g10
(S'\x07\xe3\n\x11\x02\x03\x12\x0eS\xf8'
p865
tp866
Rp867
sS'book_time'
p868
g10
(S'\x07\xe3\n\x11\x01\x10\x02\n\xc5\xd0'
p869
tp870
Rp871
sS'misc'
p872
(dp873
S'tid'
p874
I22
sS'idxs'
p875
(dp876
S'units1'
p877
(lp878
I22
asS'units3'
p879
(lp880
I22
asS'units2'
p881
(lp882
I22
asS'batch_size'
p883
(lp884
I22
assS'cmd'
p885
(S'domain_attachment'
p886
S'FMinIter_Domain'
p887
tp888
sS'vals'
p889
(dp890
g877
(lp891
F100.0
asg879
(lp892
F40.0
asg881
(lp893
F60.0
asg883
(lp894
I0
assS'workdir'
p895
NssS'exp_key'
p896
NsS'owner'
p897
NsS'state'
p898
I2
sS'version'
p899
I0
sS'result'
p900
(dp901
S'status'
p902
S'ok'
p903
sS'loss'
p904
F0.0071
ssg874
I22
sS'spec'
p905
Nsa(dp906
S'refresh_time'
p907
g10
(S'\x07\xe3\n\x11\x02.+\x01\xdc\x90'
p908
tp909
Rp910
sS'book_time'
p911
g10
(S'\x07\xe3\n\x11\x02\x03\x12\x0e\xc5@'
p912
tp913
Rp914
sS'misc'
p915
(dp916
S'tid'
p917
I23
sS'idxs'
p918
(dp919
S'units1'
p920
(lp921
I23
asS'units3'
p922
(lp923
I23
asS'units2'
p924
(lp925
I23
asS'batch_size'
p926
(lp927
I23
assS'cmd'
p928
(S'domain_attachment'
p929
S'FMinIter_Domain'
p930
tp931
sS'vals'
p932
(dp933
g920
(lp934
F60.0
asg922
(lp935
F40.0
asg924
(lp936
F80.0
asg926
(lp937
I0
assS'workdir'
p938
NssS'state'
p939
I2
sg917
I23
sS'exp_key'
p940
NsS'version'
p941
I0
sS'result'
p942
(dp943
S'status'
p944
S'ok'
p945
sS'loss'
p946
F0.0078
ssS'owner'
p947
NsS'spec'
p948
Nsa(dp949
S'refresh_time'
p950
g10
(S'\x07\xe3\n\x11\x03#\x12\r\xaf\xe8'
p951
tp952
Rp953
sS'book_time'
p954
g10
(S'\x07\xe3\n\x11\x02.+\x02a`'
p955
tp956
Rp957
sS'misc'
p958
(dp959
S'tid'
p960
I24
sS'idxs'
p961
(dp962
S'units1'
p963
(lp964
I24
asS'units3'
p965
(lp966
I24
asS'units2'
p967
(lp968
I24
asS'batch_size'
p969
(lp970
I24
assS'cmd'
p971
(S'domain_attachment'
p972
S'FMinIter_Domain'
p973
tp974
sS'vals'
p975
(dp976
g963
(lp977
F100.0
asg965
(lp978
F20.0
asg967
(lp979
F80.0
asg969
(lp980
I0
assS'workdir'
p981
NssS'exp_key'
p982
NsS'owner'
p983
NsS'state'
p984
I2
sS'version'
p985
I0
sS'result'
p986
(dp987
S'status'
p988
S'ok'
p989
sS'loss'
p990
F0.0073
ssg960
I24
sS'spec'
p991
Nsa(dp992
S'refresh_time'
p993
g10
(S'\x07\xe3\n\x11\x04\x134\x0e!0'
p994
tp995
Rp996
sS'book_time'
p997
g10
(S'\x07\xe3\n\x11\x03#\x12\x0e)\x00'
p998
tp999
Rp1000
sS'misc'
p1001
(dp1002
S'tid'
p1003
I25
sS'idxs'
p1004
(dp1005
S'units1'
p1006
(lp1007
I25
asS'units3'
p1008
(lp1009
I25
asS'units2'
p1010
(lp1011
I25
asS'batch_size'
p1012
(lp1013
I25
assS'cmd'
p1014
(S'domain_attachment'
p1015
S'FMinIter_Domain'
p1016
tp1017
sS'vals'
p1018
(dp1019
g1006
(lp1020
F100.0
asg1008
(lp1021
F80.0
asg1010
(lp1022
F20.0
asg1012
(lp1023
I0
assS'workdir'
p1024
NssS'state'
p1025
I2
sg1003
I25
sS'exp_key'
p1026
NsS'version'
p1027
I0
sS'result'
p1028
(dp1029
S'status'
p1030
S'ok'
p1031
sS'loss'
p1032
F0.0074
ssS'owner'
p1033
NsS'spec'
p1034
Nsa(dp1035
S'refresh_time'
p1036
g10
(S'\x07\xe3\n\x11\x05\x03\x18\x06\x9bh'
p1037
tp1038
Rp1039
sS'book_time'
p1040
g10
(S'\x07\xe3\n\x11\x04\x134\x0e\x9aH'
p1041
tp1042
Rp1043
sS'misc'
p1044
(dp1045
S'tid'
p1046
I26
sS'idxs'
p1047
(dp1048
S'units1'
p1049
(lp1050
I26
asS'units3'
p1051
(lp1052
I26
asS'units2'
p1053
(lp1054
I26
asS'batch_size'
p1055
(lp1056
I26
assS'cmd'
p1057
(S'domain_attachment'
p1058
S'FMinIter_Domain'
p1059
tp1060
sS'vals'
p1061
(dp1062
g1049
(lp1063
F40.0
asg1051
(lp1064
F40.0
asg1053
(lp1065
F20.0
asg1055
(lp1066
I0
assS'workdir'
p1067
NssS'exp_key'
p1068
NsS'owner'
p1069
NsS'state'
p1070
I2
sS'version'
p1071
I0
sS'result'
p1072
(dp1073
S'status'
p1074
S'ok'
p1075
sS'loss'
p1076
F0.0084
ssg1046
I26
sS'spec'
p1077
Nsa(dp1078
S'refresh_time'
p1079
g10
(S'\x07\xe3\n\x11\x0504\x0b\xf2\x98'
p1080
tp1081
Rp1082
sS'book_time'
p1083
g10
(S'\x07\xe3\n\x11\x05\x03\x18\x07+\xf0'
p1084
tp1085
Rp1086
sS'misc'
p1087
(dp1088
S'tid'
p1089
I27
sS'idxs'
p1090
(dp1091
S'units1'
p1092
(lp1093
I27
asS'units3'
p1094
(lp1095
I27
asS'units2'
p1096
(lp1097
I27
asS'batch_size'
p1098
(lp1099
I27
assS'cmd'
p1100
(S'domain_attachment'
p1101
S'FMinIter_Domain'
p1102
tp1103
sS'vals'
p1104
(dp1105
g1092
(lp1106
F80.0
asg1094
(lp1107
F60.0
asg1096
(lp1108
F60.0
asg1098
(lp1109
I0
assS'workdir'
p1110
NssS'state'
p1111
I2
sg1089
I27
sS'exp_key'
p1112
NsS'version'
p1113
I0
sS'result'
p1114
(dp1115
S'status'
p1116
S'ok'
p1117
sS'loss'
p1118
F0.0073
ssS'owner'
p1119
NsS'spec'
p1120
Nsa(dp1121
S'refresh_time'
p1122
g10
(S'\x07\xe3\n\x11\x06!\x15\x02q\x00'
p1123
tp1124
Rp1125
sS'book_time'
p1126
g10
(S'\x07\xe3\n\x11\x0504\x0cs\x80'
p1127
tp1128
Rp1129
sS'misc'
p1130
(dp1131
S'tid'
p1132
I28
sS'idxs'
p1133
(dp1134
S'units1'
p1135
(lp1136
I28
asS'units3'
p1137
(lp1138
I28
asS'units2'
p1139
(lp1140
I28
asS'batch_size'
p1141
(lp1142
I28
assS'cmd'
p1143
(S'domain_attachment'
p1144
S'FMinIter_Domain'
p1145
tp1146
sS'vals'
p1147
(dp1148
g1135
(lp1149
F60.0
asg1137
(lp1150
F100.0
asg1139
(lp1151
F100.0
asg1141
(lp1152
I0
assS'workdir'
p1153
NssS'exp_key'
p1154
NsS'owner'
p1155
NsS'state'
p1156
I2
sS'version'
p1157
I0
sS'result'
p1158
(dp1159
S'status'
p1160
S'ok'
p1161
sS'loss'
p1162
F0.0076
ssg1132
I28
sS'spec'
p1163
Nsa(dp1164
S'refresh_time'
p1165
g10
(S'\x07\xe3\n\x11\x07\x11\x07\x01\xd0\xd8'
p1166
tp1167
Rp1168
sS'book_time'
p1169
g10
(S'\x07\xe3\n\x11\x06!\x15\x02\xf5\xd0'
p1170
tp1171
Rp1172
sS'misc'
p1173
(dp1174
S'tid'
p1175
I29
sS'idxs'
p1176
(dp1177
S'units1'
p1178
(lp1179
I29
asS'units3'
p1180
(lp1181
I29
asS'units2'
p1182
(lp1183
I29
asS'batch_size'
p1184
(lp1185
I29
assS'cmd'
p1186
(S'domain_attachment'
p1187
S'FMinIter_Domain'
p1188
tp1189
sS'vals'
p1190
(dp1191
g1178
(lp1192
F60.0
asg1180
(lp1193
F40.0
asg1182
(lp1194
F40.0
asg1184
(lp1195
I0
assS'workdir'
p1196
NssS'state'
p1197
I2
sg1175
I29
sS'exp_key'
p1198
NsS'version'
p1199
I0
sS'result'
p1200
(dp1201
S'status'
p1202
S'ok'
p1203
sS'loss'
p1204
F0.0073
ssS'owner'
p1205
NsS'spec'
p1206
Nsa(dp1207
S'refresh_time'
p1208
g10
(S'\x07\xe3\n\x11\x08\x05\x01\x03k\x00'
p1209
tp1210
Rp1211
sS'book_time'
p1212
g10
(S'\x07\xe3\n\x11\x07\x11\x07\x02q\x00'
p1213
tp1214
Rp1215
sS'misc'
p1216
(dp1217
S'tid'
p1218
I30
sS'idxs'
p1219
(dp1220
S'units1'
p1221
(lp1222
I30
asS'units3'
p1223
(lp1224
I30
asS'units2'
p1225
(lp1226
I30
asS'batch_size'
p1227
(lp1228
I30
assS'cmd'
p1229
(S'domain_attachment'
p1230
S'FMinIter_Domain'
p1231
tp1232
sS'vals'
p1233
(dp1234
g1221
(lp1235
F80.0
asg1223
(lp1236
F100.0
asg1225
(lp1237
F80.0
asg1227
(lp1238
I0
assS'workdir'
p1239
NssS'exp_key'
p1240
NsS'owner'
p1241
NsS'state'
p1242
I2
sS'version'
p1243
I0
sS'result'
p1244
(dp1245
S'status'
p1246
S'ok'
p1247
sS'loss'
p1248
F0.0069
ssg1218
I30
sS'spec'
p1249
Nsa(dp1250
S'refresh_time'
p1251
g10
(S'\x07\xe3\n\x11\x088\x06\x0e!0'
p1252
tp1253
Rp1254
sS'book_time'
p1255
g10
(S'\x07\xe3\n\x11\x08\x05\x01\x03\xeb\xe8'
p1256
tp1257
Rp1258
sS'misc'
p1259
(dp1260
S'tid'
p1261
I31
sS'idxs'
p1262
(dp1263
S'units1'
p1264
(lp1265
I31
asS'units3'
p1266
(lp1267
I31
asS'units2'
p1268
(lp1269
I31
asS'batch_size'
p1270
(lp1271
I31
assS'cmd'
p1272
(S'domain_attachment'
p1273
S'FMinIter_Domain'
p1274
tp1275
sS'vals'
p1276
(dp1277
g1264
(lp1278
F100.0
asg1266
(lp1279
F60.0
asg1268
(lp1280
F80.0
asg1270
(lp1281
I0
assS'workdir'
p1282
NssS'state'
p1283
I2
sg1261
I31
sS'exp_key'
p1284
NsS'version'
p1285
I0
sS'result'
p1286
(dp1287
S'status'
p1288
S'ok'
p1289
sS'loss'
p1290
F0.0074
ssS'owner'
p1291
NsS'spec'
p1292
Nsa(dp1293
S'refresh_time'
p1294
g10
(S'\x07\xe3\n\x11\t).\x00ix'
p1295
tp1296
Rp1297
sS'book_time'
p1298
g10
(S'\x07\xe3\n\x11\x088\x06\x0e\xa6\x00'
p1299
tp1300
Rp1301
sS'misc'
p1302
(dp1303
S'tid'
p1304
I32
sS'idxs'
p1305
(dp1306
S'units1'
p1307
(lp1308
I32
asS'units3'
p1309
(lp1310
I32
asS'units2'
p1311
(lp1312
I32
asS'batch_size'
p1313
(lp1314
I32
assS'cmd'
p1315
(S'domain_attachment'
p1316
S'FMinIter_Domain'
p1317
tp1318
sS'vals'
p1319
(dp1320
g1307
(lp1321
F80.0
asg1309
(lp1322
F20.0
asg1311
(lp1323
F80.0
asg1313
(lp1324
I0
assS'workdir'
p1325
NssS'exp_key'
p1326
NsS'owner'
p1327
NsS'state'
p1328
I2
sS'version'
p1329
I0
sS'result'
p1330
(dp1331
S'status'
p1332
S'ok'
p1333
sS'loss'
p1334
F0.0073
ssg1304
I32
sS'spec'
p1335
Nsa(dp1336
S'refresh_time'
p1337
g10
(S'\x07\xe3\n\x11\n\x1a,\x0b\x1b\xc0'
p1338
tp1339
Rp1340
sS'book_time'
p1341
g10
(S'\x07\xe3\n\x11\t).\x01!\x10'
p1342
tp1343
Rp1344
sS'misc'
p1345
(dp1346
S'tid'
p1347
I33
sS'idxs'
p1348
(dp1349
S'units1'
p1350
(lp1351
I33
asS'units3'
p1352
(lp1353
I33
asS'units2'
p1354
(lp1355
I33
asS'batch_size'
p1356
(lp1357
I33
assS'cmd'
p1358
(S'domain_attachment'
p1359
S'FMinIter_Domain'
p1360
tp1361
sS'vals'
p1362
(dp1363
g1350
(lp1364
F80.0
asg1352
(lp1365
F0.0
asg1354
(lp1366
F80.0
asg1356
(lp1367
I0
assS'workdir'
p1368
NssS'state'
p1369
I2
sg1347
I33
sS'exp_key'
p1370
NsS'version'
p1371
I0
sS'result'
p1372
(dp1373
S'status'
p1374
S'ok'
p1375
sS'loss'
p1376
F0.007
ssS'owner'
p1377
NsS'spec'
p1378
Nsa(dp1379
S'refresh_time'
p1380
g10
(S'\x07\xe3\n\x11\x0b\n\x1b\x02Q\xc0'
p1381
tp1382
Rp1383
sS'book_time'
p1384
g10
(S'\x07\xe3\n\x11\n\x1a,\x0b\xa8`'
p1385
tp1386
Rp1387
sS'misc'
p1388
(dp1389
S'tid'
p1390
I34
sS'idxs'
p1391
(dp1392
S'units1'
p1393
(lp1394
I34
asS'units3'
p1395
(lp1396
I34
asS'units2'
p1397
(lp1398
I34
asS'batch_size'
p1399
(lp1400
I34
assS'cmd'
p1401
(S'domain_attachment'
p1402
S'FMinIter_Domain'
p1403
tp1404
sS'vals'
p1405
(dp1406
g1393
(lp1407
F40.0
asg1395
(lp1408
F40.0
asg1397
(lp1409
F40.0
asg1399
(lp1410
I0
assS'workdir'
p1411
NssS'exp_key'
p1412
NsS'owner'
p1413
NsS'state'
p1414
I2
sS'version'
p1415
I0
sS'result'
p1416
(dp1417
S'status'
p1418
S'ok'
p1419
sS'loss'
p1420
F0.0081
ssg1390
I34
sS'spec'
p1421
Nsa(dp1422
S'refresh_time'
p1423
g10
(S'\x07\xe3\n\x11\x0b6,\x0e\xcd\x10'
p1424
tp1425
Rp1426
sS'book_time'
p1427
g10
(S'\x07\xe3\n\x11\x0b\n\x1b\x02\xee\x00'
p1428
tp1429
Rp1430
sS'misc'
p1431
(dp1432
S'tid'
p1433
I35
sS'idxs'
p1434
(dp1435
S'units1'
p1436
(lp1437
I35
asS'units3'
p1438
(lp1439
I35
asS'units2'
p1440
(lp1441
I35
asS'batch_size'
p1442
(lp1443
I35
assS'cmd'
p1444
(S'domain_attachment'
p1445
S'FMinIter_Domain'
p1446
tp1447
sS'vals'
p1448
(dp1449
g1436
(lp1450
F60.0
asg1438
(lp1451
F60.0
asg1440
(lp1452
F40.0
asg1442
(lp1453
I0
assS'workdir'
p1454
NssS'state'
p1455
I2
sg1433
I35
sS'exp_key'
p1456
NsS'version'
p1457
I0
sS'result'
p1458
(dp1459
S'status'
p1460
S'ok'
p1461
sS'loss'
p1462
F0.0073
ssS'owner'
p1463
NsS'spec'
p1464
Nsa(dp1465
S'refresh_time'
p1466
g10
(S"\x07\xe3\n\x11\x0c')\x07}\xf8"
p1467
tp1468
Rp1469
sS'book_time'
p1470
g10
(S'\x07\xe3\n\x11\x0b6-\x00R\x08'
p1471
tp1472
Rp1473
sS'misc'
p1474
(dp1475
S'tid'
p1476
I36
sS'idxs'
p1477
(dp1478
S'units1'
p1479
(lp1480
I36
asS'units3'
p1481
(lp1482
I36
asS'units2'
p1483
(lp1484
I36
asS'batch_size'
p1485
(lp1486
I36
assS'cmd'
p1487
(S'domain_attachment'
p1488
S'FMinIter_Domain'
p1489
tp1490
sS'vals'
p1491
(dp1492
g1479
(lp1493
F60.0
asg1481
(lp1494
F40.0
asg1483
(lp1495
F0.0
asg1485
(lp1496
I0
assS'workdir'
p1497
NssS'exp_key'
p1498
NsS'owner'
p1499
NsS'state'
p1500
I2
sS'version'
p1501
I0
sS'result'
p1502
(dp1503
S'status'
p1504
S'ok'
p1505
sS'loss'
p1506
F0.0078
ssg1476
I36
sS'spec'
p1507
Nsa(dp1508
S'refresh_time'
p1509
g10
(S'\x07\xe3\n\x11\r\x16,\x01\xdc\x90'
p1510
tp1511
Rp1512
sS'book_time'
p1513
g10
(S"\x07\xe3\n\x11\x0c')\x08%\xf0"
p1514
tp1515
Rp1516
sS'misc'
p1517
(dp1518
S'tid'
p1519
I37
sS'idxs'
p1520
(dp1521
S'units1'
p1522
(lp1523
I37
asS'units3'
p1524
(lp1525
I37
asS'units2'
p1526
(lp1527
I37
asS'batch_size'
p1528
(lp1529
I37
assS'cmd'
p1530
(S'domain_attachment'
p1531
S'FMinIter_Domain'
p1532
tp1533
sS'vals'
p1534
(dp1535
g1522
(lp1536
F0.0
asg1524
(lp1537
F0.0
asg1526
(lp1538
F20.0
asg1528
(lp1539
I0
assS'workdir'
p1540
NssS'state'
p1541
I2
sg1519
I37
sS'exp_key'
p1542
NsS'version'
p1543
I0
sS'result'
p1544
(dp1545
S'status'
p1546
S'ok'
p1547
sS'loss'
p1548
F0.0383
ssS'owner'
p1549
NsS'spec'
p1550
Nsa(dp1551
S'refresh_time'
p1552
g10
(S'\x07\xe3\n\x11\r4\x04\x03\xffp'
p1553
tp1554
Rp1555
sS'book_time'
p1556
g10
(S'\x07\xe3\n\x11\r\x16,\x02\x90@'
p1557
tp1558
Rp1559
sS'misc'
p1560
(dp1561
S'tid'
p1562
I38
sS'idxs'
p1563
(dp1564
S'units1'
p1565
(lp1566
I38
asS'units3'
p1567
(lp1568
I38
asS'units2'
p1569
(lp1570
I38
asS'batch_size'
p1571
(lp1572
I38
assS'cmd'
p1573
(S'domain_attachment'
p1574
S'FMinIter_Domain'
p1575
tp1576
sS'vals'
p1577
(dp1578
g1565
(lp1579
F40.0
asg1567
(lp1580
F40.0
asg1569
(lp1581
F60.0
asg1571
(lp1582
I0
assS'workdir'
p1583
NssS'exp_key'
p1584
NsS'owner'
p1585
NsS'state'
p1586
I2
sS'version'
p1587
I0
sS'result'
p1588
(dp1589
S'status'
p1590
S'ok'
p1591
sS'loss'
p1592
F0.0079
ssg1562
I38
sS'spec'
p1593
Nsa(dp1594
S'refresh_time'
p1595
g10
(S'\x07\xe3\n\x11\x0e\x12\x1e\x0e\xe4\x80'
p1596
tp1597
Rp1598
sS'book_time'
p1599
g10
(S'\x07\xe3\n\x11\r4\x04\x046 '
p1600
tp1601
Rp1602
sS'misc'
p1603
(dp1604
S'tid'
p1605
I39
sS'idxs'
p1606
(dp1607
S'units1'
p1608
(lp1609
I39
asS'units3'
p1610
(lp1611
I39
asS'units2'
p1612
(lp1613
I39
asS'batch_size'
p1614
(lp1615
I39
assS'cmd'
p1616
(S'domain_attachment'
p1617
S'FMinIter_Domain'
p1618
tp1619
sS'vals'
p1620
(dp1621
g1608
(lp1622
F100.0
asg1610
(lp1623
F20.0
asg1612
(lp1624
F60.0
asg1614
(lp1625
I0
assS'workdir'
p1626
NssS'state'
p1627
I2
sg1605
I39
sS'exp_key'
p1628
NsS'version'
p1629
I0
sS'result'
p1630
(dp1631
S'status'
p1632
S'ok'
p1633
sS'loss'
p1634
F0.0072
ssS'owner'
p1635
NsS'spec'
p1636
Nsa(dp1637
S'refresh_time'
p1638
g10
(S'\x07\xe3\n\x11\x0e&\x1c\x0e\x92x'
p1639
tp1640
Rp1641
sS'book_time'
p1642
g10
(S'\x07\xe3\n\x11\x0e\x12\x1e\x0f\x1f\x18'
p1643
tp1644
Rp1645
sS'misc'
p1646
(dp1647
S'tid'
p1648
I40
sS'idxs'
p1649
(dp1650
S'units1'
p1651
(lp1652
I40
asS'units3'
p1653
(lp1654
I40
asS'units2'
p1655
(lp1656
I40
asS'batch_size'
p1657
(lp1658
I40
assS'cmd'
p1659
(S'domain_attachment'
p1660
S'FMinIter_Domain'
p1661
tp1662
sS'vals'
p1663
(dp1664
g1651
(lp1665
F60.0
asg1653
(lp1666
F60.0
asg1655
(lp1667
F20.0
asg1657
(lp1668
I0
assS'workdir'
p1669
NssS'exp_key'
p1670
NsS'owner'
p1671
NsS'state'
p1672
I2
sS'version'
p1673
I0
sS'result'
p1674
(dp1675
S'status'
p1676
S'ok'
p1677
sS'loss'
p1678
F0.0077
ssg1648
I40
sS'spec'
p1679
Nsa(dp1680
S'refresh_time'
p1681
g10
(S'\x07\xe3\n\x11\x0e:\x03\x0b\xacH'
p1682
tp1683
Rp1684
sS'book_time'
p1685
g10
(S'\x07\xe3\n\x11\x0e&\x1c\x0e\xecP'
p1686
tp1687
Rp1688
sS'misc'
p1689
(dp1690
S'tid'
p1691
I41
sS'idxs'
p1692
(dp1693
S'units1'
p1694
(lp1695
I41
asS'units3'
p1696
(lp1697
I41
asS'units2'
p1698
(lp1699
I41
asS'batch_size'
p1700
(lp1701
I41
assS'cmd'
p1702
(S'domain_attachment'
p1703
S'FMinIter_Domain'
p1704
tp1705
sS'vals'
p1706
(dp1707
g1694
(lp1708
F60.0
asg1696
(lp1709
F80.0
asg1698
(lp1710
F20.0
asg1700
(lp1711
I0
assS'workdir'
p1712
NssS'state'
p1713
I2
sg1691
I41
sS'exp_key'
p1714
NsS'version'
p1715
I0
sS'result'
p1716
(dp1717
S'status'
p1718
S'ok'
p1719
sS'loss'
p1720
F0.0077
ssS'owner'
p1721
NsS'spec'
p1722
Nsa(dp1723
S'refresh_time'
p1724
g10
(S'\x07\xe3\n\x11\x0f\x195\x02t\xe8'
p1725
tp1726
Rp1727
sS'book_time'
p1728
g10
(S'\x07\xe3\n\x11\x0e:\x03\x0b\xe2\xf8'
p1729
tp1730
Rp1731
sS'misc'
p1732
(dp1733
S'tid'
p1734
I42
sS'idxs'
p1735
(dp1736
S'units1'
p1737
(lp1738
I42
asS'units3'
p1739
(lp1740
I42
asS'units2'
p1741
(lp1742
I42
asS'batch_size'
p1743
(lp1744
I42
assS'cmd'
p1745
(S'domain_attachment'
p1746
S'FMinIter_Domain'
p1747
tp1748
sS'vals'
p1749
(dp1750
g1737
(lp1751
F80.0
asg1739
(lp1752
F80.0
asg1741
(lp1753
F80.0
asg1743
(lp1754
I0
assS'workdir'
p1755
NssS'exp_key'
p1756
NsS'owner'
p1757
NsS'state'
p1758
I2
sS'version'
p1759
I0
sS'result'
p1760
(dp1761
S'status'
p1762
S'ok'
p1763
sS'loss'
p1764
F0.0077
ssg1734
I42
sS'spec'
p1765
Nsa(dp1766
S'refresh_time'
p1767
g10
(S'\x07\xe3\n\x11\x0f,/\x04.P'
p1768
tp1769
Rp1770
sS'book_time'
p1771
g10
(S'\x07\xe3\n\x11\x0f\x195\x02\xab\x98'
p1772
tp1773
Rp1774
sS'misc'
p1775
(dp1776
S'tid'
p1777
I43
sS'idxs'
p1778
(dp1779
S'units1'
p1780
(lp1781
I43
asS'units3'
p1782
(lp1783
I43
asS'units2'
p1784
(lp1785
I43
asS'batch_size'
p1786
(lp1787
I43
assS'cmd'
p1788
(S'domain_attachment'
p1789
S'FMinIter_Domain'
p1790
tp1791
sS'vals'
p1792
(dp1793
g1780
(lp1794
F40.0
asg1782
(lp1795
F80.0
asg1784
(lp1796
F20.0
asg1786
(lp1797
I0
assS'workdir'
p1798
NssS'state'
p1799
I2
sg1777
I43
sS'exp_key'
p1800
NsS'version'
p1801
I0
sS'result'
p1802
(dp1803
S'status'
p1804
S'ok'
p1805
sS'loss'
p1806
F0.0084
ssS'owner'
p1807
NsS'spec'
p1808
Nsa(dp1809
S'refresh_time'
p1810
g10
(S'\x07\xe3\n\x11\x10\x03+\x04\xda0'
p1811
tp1812
Rp1813
sS'book_time'
p1814
g10
(S'\x07\xe3\n\x11\x0f,/\x04\x80X'
p1815
tp1816
Rp1817
sS'misc'
p1818
(dp1819
S'tid'
p1820
I44
sS'idxs'
p1821
(dp1822
S'units1'
p1823
(lp1824
I44
asS'units3'
p1825
(lp1826
I44
asS'units2'
p1827
(lp1828
I44
asS'batch_size'
p1829
(lp1830
I44
assS'cmd'
p1831
(S'domain_attachment'
p1832
S'FMinIter_Domain'
p1833
tp1834
sS'vals'
p1835
(dp1836
g1823
(lp1837
F20.0
asg1825
(lp1838
F80.0
asg1827
(lp1839
F40.0
asg1829
(lp1840
I0
assS'workdir'
p1841
NssS'exp_key'
p1842
NsS'owner'
p1843
NsS'state'
p1844
I2
sS'version'
p1845
I0
sS'result'
p1846
(dp1847
S'status'
p1848
S'ok'
p1849
sS'loss'
p1850
F0.0138
ssg1820
I44
sS'spec'
p1851
Nsa(dp1852
S'refresh_time'
p1853
g10
(S'\x07\xe3\n\x11\x10\x1c,\r\x17\x90'
p1854
tp1855
Rp1856
sS'book_time'
p1857
g10
(S'\x07\xe3\n\x11\x10\x03+\x05\x18\xb0'
p1858
tp1859
Rp1860
sS'misc'
p1861
(dp1862
S'tid'
p1863
I45
sS'idxs'
p1864
(dp1865
S'units1'
p1866
(lp1867
I45
asS'units3'
p1868
(lp1869
I45
asS'units2'
p1870
(lp1871
I45
asS'batch_size'
p1872
(lp1873
I45
assS'cmd'
p1874
(S'domain_attachment'
p1875
S'FMinIter_Domain'
p1876
tp1877
sS'vals'
p1878
(dp1879
g1866
(lp1880
F100.0
asg1868
(lp1881
F60.0
asg1870
(lp1882
F40.0
asg1872
(lp1883
I0
assS'workdir'
p1884
NssS'state'
p1885
I2
sg1863
I45
sS'exp_key'
p1886
NsS'version'
p1887
I0
sS'result'
p1888
(dp1889
S'status'
p1890
S'ok'
p1891
sS'loss'
p1892
F0.0075
ssS'owner'
p1893
NsS'spec'
p1894
Nsa(dp1895
S'refresh_time'
p1896
g10
(S'\x07\xe3\n\x11\x1009\x02\xbf '
p1897
tp1898
Rp1899
sS'book_time'
p1900
g10
(S'\x07\xe3\n\x11\x10\x1c,\r]\xe0'
p1901
tp1902
Rp1903
sS'misc'
p1904
(dp1905
S'tid'
p1906
I46
sS'idxs'
p1907
(dp1908
S'units1'
p1909
(lp1910
I46
asS'units3'
p1911
(lp1912
I46
asS'units2'
p1913
(lp1914
I46
asS'batch_size'
p1915
(lp1916
I46
assS'cmd'
p1917
(S'domain_attachment'
p1918
S'FMinIter_Domain'
p1919
tp1920
sS'vals'
p1921
(dp1922
g1909
(lp1923
F60.0
asg1911
(lp1924
F20.0
asg1913
(lp1925
F60.0
asg1915
(lp1926
I0
assS'workdir'
p1927
NssS'exp_key'
p1928
NsS'owner'
p1929
NsS'state'
p1930
I2
sS'version'
p1931
I0
sS'result'
p1932
(dp1933
S'status'
p1934
S'ok'
p1935
sS'loss'
p1936
F0.0078
ssg1906
I46
sS'spec'
p1937
Nsa(dp1938
S'refresh_time'
p1939
g10
(S'\x07\xe3\n\x11\x11\t\x1b\n\x87P'
p1940
tp1941
Rp1942
sS'book_time'
p1943
g10
(S'\x07\xe3\n\x11\x1009\x02\xfd\xa0'
p1944
tp1945
Rp1946
sS'misc'
p1947
(dp1948
S'tid'
p1949
I47
sS'idxs'
p1950
(dp1951
S'units1'
p1952
(lp1953
I47
asS'units3'
p1954
(lp1955
I47
asS'units2'
p1956
(lp1957
I47
asS'batch_size'
p1958
(lp1959
I47
assS'cmd'
p1960
(S'domain_attachment'
p1961
S'FMinIter_Domain'
p1962
tp1963
sS'vals'
p1964
(dp1965
g1952
(lp1966
F60.0
asg1954
(lp1967
F40.0
asg1956
(lp1968
F60.0
asg1958
(lp1969
I0
assS'workdir'
p1970
NssS'state'
p1971
I2
sg1949
I47
sS'exp_key'
p1972
NsS'version'
p1973
I0
sS'result'
p1974
(dp1975
S'status'
p1976
S'ok'
p1977
sS'loss'
p1978
F0.0079
ssS'owner'
p1979
NsS'spec'
p1980
Nsa(dp1981
S'refresh_time'
p1982
g10
(S'\x07\xe3\n\x11\x11\x1c\x02\x0b\x1f\xa8'
p1983
tp1984
Rp1985
sS'book_time'
p1986
g10
(S'\x07\xe3\n\x11\x11\t\x1b\n\xc5\xd0'
p1987
tp1988
Rp1989
sS'misc'
p1990
(dp1991
S'tid'
p1992
I48
sS'idxs'
p1993
(dp1994
S'units1'
p1995
(lp1996
I48
asS'units3'
p1997
(lp1998
I48
asS'units2'
p1999
(lp2000
I48
asS'batch_size'
p2001
(lp2002
I48
assS'cmd'
p2003
(S'domain_attachment'
p2004
S'FMinIter_Domain'
p2005
tp2006
sS'vals'
p2007
(dp2008
g1995
(lp2009
F20.0
asg1997
(lp2010
F20.0
asg1999
(lp2011
F60.0
asg2001
(lp2012
I0
assS'workdir'
p2013
NssS'exp_key'
p2014
NsS'owner'
p2015
NsS'state'
p2016
I2
sS'version'
p2017
I0
sS'result'
p2018
(dp2019
S'status'
p2020
S'ok'
p2021
sS'loss'
p2022
F0.0139
ssg1992
I48
sS'spec'
p2023
Nsa(dp2024
S'refresh_time'
p2025
g10
(S'\x07\xe3\n\x11\x113-\x01\x11p'
p2026
tp2027
Rp2028
sS'book_time'
p2029
g10
(S'\x07\xe3\n\x11\x11\x1c\x02\x0b^('
p2030
tp2031
Rp2032
sS'misc'
p2033
(dp2034
S'tid'
p2035
I49
sS'idxs'
p2036
(dp2037
S'units1'
p2038
(lp2039
I49
asS'units3'
p2040
(lp2041
I49
asS'units2'
p2042
(lp2043
I49
asS'batch_size'
p2044
(lp2045
I49
assS'cmd'
p2046
(S'domain_attachment'
p2047
S'FMinIter_Domain'
p2048
tp2049
sS'vals'
p2050
(dp2051
g2038
(lp2052
F80.0
asg2040
(lp2053
F40.0
asg2042
(lp2054
F60.0
asg2044
(lp2055
I0
assS'workdir'
p2056
NssS'state'
p2057
I2
sg2035
I49
sS'exp_key'
p2058
NsS'version'
p2059
I0
sS'result'
p2060
(dp2061
S'status'
p2062
S'ok'
p2063
sS'loss'
p2064
F0.0077
ssS'owner'
p2065
NsS'spec'
p2066
Nsa(dp2067
S'refresh_time'
p2068
g10
(S'\x07\xe3\n\x11\x12\n\x0b\tJ\xe8'
p2069
tp2070
Rp2071
sS'book_time'
p2072
g10
(S'\x07\xe3\n\x11\x113-\x01w\x00'
p2073
tp2074
Rp2075
sS'misc'
p2076
(dp2077
S'tid'
p2078
I50
sS'idxs'
p2079
(dp2080
S'units1'
p2081
(lp2082
I50
asS'units3'
p2083
(lp2084
I50
asS'units2'
p2085
(lp2086
I50
asS'batch_size'
p2087
(lp2088
I50
assS'cmd'
p2089
(S'domain_attachment'
p2090
S'FMinIter_Domain'
p2091
tp2092
sS'vals'
p2093
(dp2094
g2081
(lp2095
F20.0
asg2083
(lp2096
F60.0
asg2085
(lp2097
F0.0
asg2087
(lp2098
I0
assS'workdir'
p2099
NssS'exp_key'
p2100
NsS'owner'
p2101
NsS'state'
p2102
I2
sS'version'
p2103
I0
sS'result'
p2104
(dp2105
S'status'
p2106
S'ok'
p2107
sS'loss'
p2108
F0.0137
ssg2078
I50
sS'spec'
p2109
Nsa(dp2110
S'refresh_time'
p2111
g10
(S'\x07\xe3\n\x11\x12\x1d\x15\x05\xef\x88'
p2112
tp2113
Rp2114
sS'book_time'
p2115
g10
(S'\x07\xe3\n\x11\x12\n\x0b\t\x8dP'
p2116
tp2117
Rp2118
sS'misc'
p2119
(dp2120
S'tid'
p2121
I51
sS'idxs'
p2122
(dp2123
S'units1'
p2124
(lp2125
I51
asS'units3'
p2126
(lp2127
I51
asS'units2'
p2128
(lp2129
I51
asS'batch_size'
p2130
(lp2131
I51
assS'cmd'
p2132
(S'domain_attachment'
p2133
S'FMinIter_Domain'
p2134
tp2135
sS'vals'
p2136
(dp2137
g2124
(lp2138
F60.0
asg2126
(lp2139
F80.0
asg2128
(lp2140
F0.0
asg2130
(lp2141
I0
assS'workdir'
p2142
NssS'state'
p2143
I2
sg2121
I51
sS'exp_key'
p2144
NsS'version'
p2145
I0
sS'result'
p2146
(dp2147
S'status'
p2148
S'ok'
p2149
sS'loss'
p2150
F0.0078
ssS'owner'
p2151
NsS'spec'
p2152
NsasS'_exp_key'
p2153
NsS'attachments'
p2154
(dp2155
sS'_dynamic_trials'
p2156
(lp2157
g8
ag52
ag72
ag92
ag112
ag132
ag175
ag218
ag261
ag304
ag347
ag390
ag433
ag476
ag519
ag562
ag605
ag648
ag691
ag734
ag777
ag820
ag863
ag906
ag949
ag992
ag1035
ag1078
ag1121
ag1164
ag1207
ag1250
ag1293
ag1336
ag1379
ag1422
ag1465
ag1508
ag1551
ag1594
ag1637
ag1680
ag1723
ag1766
ag1809
ag1852
ag1895
ag1938
ag1981
ag2024
ag2067
ag2110
asS'_ids'
p2158
c__builtin__
set
p2159
((lp2160
I0
aI1
aI2
aI3
aI4
aI5
aI6
aI7
aI8
aI9
aI10
aI11
aI12
aI13
aI14
aI15
aI16
aI17
aI18
aI19
aI20
aI21
aI22
aI23
aI24
aI25
aI26
aI27
aI28
aI29
aI30
aI31
aI32
aI33
aI34
aI35
aI36
aI37
aI38
aI39
aI40
aI41
aI42
aI43
aI44
aI45
aI46
aI47
aI48
aI49
aI50
aI51
atp2161
Rp2162
sb.