ccopy_reg
_reconstructor
p0
(chyperopt.base
Trials
p1
c__builtin__
object
p2
Ntp3
Rp4
(dp5
S'_trials'
p6
(lp7
(dp8
S'refresh_time'
p9
cdatetime
datetime
p10
(S'\x07\xe3\n\n\x002\x01\x03G\xd8'
p11
tp12
Rp13
sS'book_time'
p14
g10
(S'\x07\xe3\n\t\x179\x15\x02\x8cX'
p15
tp16
Rp17
sS'misc'
p18
(dp19
S'tid'
p20
I0
sS'idxs'
p21
(dp22
S'units1'
p23
(lp24
I0
asS'units3'
p25
(lp26
I0
asS'units2'
p27
(lp28
I0
asS'batch_size'
p29
(lp30
I0
assS'cmd'
p31
(S'domain_attachment'
p32
S'FMinIter_Domain'
p33
tp34
sS'vals'
p35
(dp36
g23
(lp37
F40.0
asg25
(lp38
F0.0
asg27
(lp39
F0.0
asg29
(lp40
I0
assS'workdir'
p41
NssS'state'
p42
I2
sg20
I0
sS'exp_key'
p43
NsS'version'
p44
I0
sS'result'
p45
(dp46
S'status'
p47
S'ok'
p48
sS'loss'
p49
F0.0085
ssS'owner'
p50
NsS'spec'
p51
Nsa(dp52
g9
g10
(S'\x07\xe3\n\n\x03\x16\x1f\x00Y\xd8'
p53
tp54
Rp55
sg14
g10
(S'\x07\xe3\n\n\x002\x01\x03S\x90'
p56
tp57
Rp58
sg18
(dp59
g20
I1
sg21
(dp60
g23
(lp61
I1
asg25
(lp62
I1
asg27
(lp63
I1
asg29
(lp64
I1
assg31
(g32
g33
tp65
sg35
(dp66
g23
(lp67
F100.0
asg25
(lp68
F100.0
asg27
(lp69
F60.0
asg29
(lp70
I0
assg41
Nssg42
I2
sg20
I1
sg43
Nsg44
I0
sg45
(dp71
g47
g48
sg49
F0.0072
ssg50
Nsg51
Nsa(dp72
g9
g10
(S'\x07\xe3\n\n\x04\x05\x0c\x03g\x18'
p73
tp74
Rp75
sg14
g10
(S'\x07\xe3\n\n\x03\x16\x1f\x00a\xa8'
p76
tp77
Rp78
sg18
(dp79
g20
I2
sg21
(dp80
g23
(lp81
I2
asg25
(lp82
I2
asg27
(lp83
I2
asg29
(lp84
I2
assg31
(g32
g33
tp85
sg35
(dp86
g23
(lp87
F20.0
asg25
(lp88
F100.0
asg27
(lp89
F80.0
asg29
(lp90
I0
assg41
Nssg42
I2
sg20
I2
sg43
Nsg44
I0
sg45
(dp91
g47
g48
sg49
F0.0134
ssg50
Nsg51
Nsa(dp92
g9
g10
(S'\x07\xe3\n\n\x04;\x1c\x0c\x96\xa8'
p93
tp94
Rp95
sg14
g10
(S'\x07\xe3\n\n\x04\x05\x0c\x03r\xd0'
p96
tp97
Rp98
sg18
(dp99
g20
I3
sg21
(dp100
g23
(lp101
I3
asg25
(lp102
I3
asg27
(lp103
I3
asg29
(lp104
I3
assg31
(g32
g33
tp105
sg35
(dp106
g23
(lp107
F60.0
asg25
(lp108
F40.0
asg27
(lp109
F20.0
asg29
(lp110
I0
assg41
Nssg42
I2
sg20
I3
sg43
Nsg44
I0
sg45
(dp111
g47
g48
sg49
F0.0078
ssg50
Nsg51
Nsa(dp112
g9
g10
(S'\x07\xe3\n\n\x06\x1d8\x0e\x15x'
p113
tp114
Rp115
sg14
g10
(S'\x07\xe3\n\n\x04;\x1c\x0c\xa6H'
p116
tp117
Rp118
sg18
(dp119
g20
I4
sg21
(dp120
g23
(lp121
I4
asg25
(lp122
I4
asg27
(lp123
I4
asg29
(lp124
I4
assg31
(g32
g33
tp125
sg35
(dp126
g23
(lp127
F60.0
asg25
(lp128
F60.0
asg27
(lp129
F80.0
asg29
(lp130
I0
assg41
Nssg42
I2
sg20
I4
sg43
Nsg44
I0
sg45
(dp131
g47
g48
sg49
F0.0077
ssg50
Nsg51
Nsa(dp132
S'refresh_time'
p133
g10
(S'\x07\xe3\n\n\x07!*\x03O\xa8'
p134
tp135
Rp136
sS'book_time'
p137
g10
(S'\x07\xe3\n\n\x06\x1d8\x0eL('
p138
tp139
Rp140
sS'misc'
p141
(dp142
S'tid'
p143
I5
sS'idxs'
p144
(dp145
S'units1'
p146
(lp147
I5
asS'units3'
p148
(lp149
I5
asS'units2'
p150
(lp151
I5
asS'batch_size'
p152
(lp153
I5
assS'cmd'
p154
(S'domain_attachment'
p155
S'FMinIter_Domain'
p156
tp157
sS'vals'
p158
(dp159
g146
(lp160
F40.0
asg148
(lp161
F100.0
asg150
(lp162
F80.0
asg152
(lp163
I0
assS'workdir'
p164
NssS'exp_key'
p165
NsS'owner'
p166
NsS'state'
p167
I2
sS'version'
p168
I0
sS'result'
p169
(dp170
S'status'
p171
S'ok'
p172
sS'loss'
p173
F0.0082
ssg143
I5
sS'spec'
p174
Nsa(dp175
S'refresh_time'
p176
g10
(S'\x07\xe3\n\n\x08;,\x0b\xa8`'
p177
tp178
Rp179
sS'book_time'
p180
g10
(S'\x07\xe3\n\n\x07!*\x03\x8a@'
p181
tp182
Rp183
sS'misc'
p184
(dp185
S'tid'
p186
I6
sS'idxs'
p187
(dp188
S'units1'
p189
(lp190
I6
asS'units3'
p191
(lp192
I6
asS'units2'
p193
(lp194
I6
asS'batch_size'
p195
(lp196
I6
assS'cmd'
p197
(S'domain_attachment'
p198
S'FMinIter_Domain'
p199
tp200
sS'vals'
p201
(dp202
g189
(lp203
F60.0
asg191
(lp204
F40.0
asg193
(lp205
F80.0
asg195
(lp206
I0
assS'workdir'
p207
NssS'state'
p208
I2
sg186
I6
sS'exp_key'
p209
NsS'version'
p210
I0
sS'result'
p211
(dp212
S'status'
p213
S'ok'
p214
sS'loss'
p215
F0.0078
ssS'owner'
p216
NsS'spec'
p217
Nsa(dp218
S'refresh_time'
p219
g10
(S'\x07\xe3\n\n\n\x116\r\x04\x08'
p220
tp221
Rp222
sS'book_time'
p223
g10
(S'\x07\xe3\n\n\x08;,\x0b\xdb('
p224
tp225
Rp226
sS'misc'
p227
(dp228
S'tid'
p229
I7
sS'idxs'
p230
(dp231
S'units1'
p232
(lp233
I7
asS'units3'
p234
(lp235
I7
asS'units2'
p236
(lp237
I7
asS'batch_size'
p238
(lp239
I7
assS'cmd'
p240
(S'domain_attachment'
p241
S'FMinIter_Domain'
p242
tp243
sS'vals'
p244
(dp245
g232
(lp246
F100.0
asg234
(lp247
F0.0
asg236
(lp248
F20.0
asg238
(lp249
I0
assS'workdir'
p250
NssS'exp_key'
p251
NsS'owner'
p252
NsS'state'
p253
I2
sS'version'
p254
I0
sS'result'
p255
(dp256
S'status'
p257
S'ok'
p258
sS'loss'
p259
F0.0074
ssg229
I7
sS'spec'
p260
Nsa(dp261
S'refresh_time'
p262
g10
(S'\x07\xe3\n\n\x0b\x0e\x0b\t\x04\x98'
p263
tp264
Rp265
sS'book_time'
p266
g10
(S'\x07\xe3\n\n\n\x116\rFp'
p267
tp268
Rp269
sS'misc'
p270
(dp271
S'tid'
p272
I8
sS'idxs'
p273
(dp274
S'units1'
p275
(lp276
I8
asS'units3'
p277
(lp278
I8
asS'units2'
p279
(lp280
I8
asS'batch_size'
p281
(lp282
I8
assS'cmd'
p283
(S'domain_attachment'
p284
S'FMinIter_Domain'
p285
tp286
sS'vals'
p287
(dp288
g275
(lp289
F80.0
asg277
(lp290
F60.0
asg279
(lp291
F0.0
asg281
(lp292
I0
assS'workdir'
p293
NssS'state'
p294
I2
sg272
I8
sS'exp_key'
p295
NsS'version'
p296
I0
sS'result'
p297
(dp298
S'status'
p299
S'ok'
p300
sS'loss'
p301
F0.0084
ssS'owner'
p302
NsS'spec'
p303
NsasS'_exp_key'
p304
NsS'attachments'
p305
(dp306
sS'_dynamic_trials'
p307
(lp308
g8
ag52
ag72
ag92
ag112
ag132
ag175
ag218
ag261
asS'_ids'
p309
c__builtin__
set
p310
((lp311
I0
aI1
aI2
aI3
aI4
aI5
aI6
aI7
aI8
atp312
Rp313
sb.