ccopy_reg
_reconstructor
p0
(chyperopt.base
Trials
p1
c__builtin__
object
p2
Ntp3
Rp4
(dp5
S'_trials'
p6
(lp7
(dp8
S'refresh_time'
p9
cdatetime
datetime
p10
(S'\x07\xe3\n\r\x10\x13$\x02\x1b\x10'
p11
tp12
Rp13
sS'book_time'
p14
g10
(S'\x07\xe3\n\r\x0f\x11-\x08w\xf8'
p15
tp16
Rp17
sS'misc'
p18
(dp19
S'tid'
p20
I0
sS'idxs'
p21
(dp22
S'units1'
p23
(lp24
I0
asS'units2'
p25
(lp26
I0
asS'batch_size'
p27
(lp28
I0
assS'cmd'
p29
(S'domain_attachment'
p30
S'FMinIter_Domain'
p31
tp32
sS'vals'
p33
(dp34
g23
(lp35
F20.0
asg25
(lp36
F80.0
asg27
(lp37
I0
assS'workdir'
p38
NssS'exp_key'
p39
NsS'owner'
p40
NsS'state'
p41
I2
sS'version'
p42
I0
sS'result'
p43
(dp44
S'status'
p45
S'ok'
p46
sS'loss'
p47
F0.0142
ssg20
I0
sS'spec'
p48
Nsa(dp49
g9
g10
(S'\x07\xe3\n\r\x14"\x01\x026h'
p50
tp51
Rp52
sg14
g10
(S'\x07\xe3\n\r\x10\x13$\x02"\xe0'
p53
tp54
Rp55
sg18
(dp56
g20
I1
sg21
(dp57
g23
(lp58
I1
asg25
(lp59
I1
asg27
(lp60
I1
assg29
(g30
g31
tp61
sg33
(dp62
g23
(lp63
F90.0
asg25
(lp64
F85.0
asg27
(lp65
I0
assg38
Nssg39
Nsg40
Nsg41
I2
sg42
I0
sg43
(dp66
g45
g46
sg47
F0.0102
ssg20
I1
sg48
Nsa(dp67
g9
g10
(S'\x07\xe3\n\r\x16$$\x00\x94p'
p68
tp69
Rp70
sg14
g10
(S'\x07\xe3\n\r\x14"\x01\x02I\xf0'
p71
tp72
Rp73
sg18
(dp74
g20
I2
sg21
(dp75
g23
(lp76
I2
asg25
(lp77
I2
asg27
(lp78
I2
assg29
(g30
g31
tp79
sg33
(dp80
g23
(lp81
F75.0
asg25
(lp82
F10.0
asg27
(lp83
I0
assg38
Nssg39
Nsg40
Nsg41
I2
sg42
I0
sg43
(dp84
g45
g46
sg47
F0.0098
ssg20
I2
sg48
Nsa(dp85
g9
g10
(S'\x07\xe3\n\x0e\x00\x1c\x17\x07\xd7\xd0'
p86
tp87
Rp88
sg14
g10
(S'\x07\xe3\n\r\x16$$\x00\xab\xe0'
p89
tp90
Rp91
sg18
(dp92
g20
I3
sg21
(dp93
g23
(lp94
I3
asg25
(lp95
I3
asg27
(lp96
I3
assg29
(g30
g31
tp97
sg33
(dp98
g23
(lp99
F50.0
asg25
(lp100
F60.0
asg27
(lp101
I0
assg38
Nssg39
Nsg40
Nsg41
I2
sg42
I0
sg43
(dp102
g45
g46
sg47
F0.0075
ssg20
I3
sg48
Nsa(dp103
g9
g10
(S'\x07\xe3\n\x0e\x01%\x00\x0b^('
p104
tp105
Rp106
sg14
g10
(S'\x07\xe3\n\x0e\x00\x1c\x17\x07\xe7p'
p107
tp108
Rp109
sg18
(dp110
g20
I4
sg21
(dp111
g23
(lp112
I4
asg25
(lp113
I4
asg27
(lp114
I4
assg29
(g30
g31
tp115
sg33
(dp116
g23
(lp117
F20.0
asg25
(lp118
F100.0
asg27
(lp119
I0
assg38
Nssg39
Nsg40
Nsg41
I2
sg42
I0
sg43
(dp120
g45
g46
sg47
F0.014
ssg20
I4
sg48
Nsa(dp121
S'refresh_time'
p122
g10
(S'\x07\xe3\n\x0e\x03*\x18\r\xda\xe0'
p123
tp124
Rp125
sS'book_time'
p126
g10
(S'\x07\xe3\n\x0e\x01%\x00\x0b\xa4x'
p127
tp128
Rp129
sS'misc'
p130
(dp131
S'tid'
p132
I5
sS'idxs'
p133
(dp134
S'units1'
p135
(lp136
I5
asS'units2'
p137
(lp138
I5
asS'batch_size'
p139
(lp140
I5
assS'cmd'
p141
(S'domain_attachment'
p142
S'FMinIter_Domain'
p143
tp144
sS'vals'
p145
(dp146
g135
(lp147
F65.0
asg137
(lp148
F30.0
asg139
(lp149
I0
assS'workdir'
p150
NssS'state'
p151
I2
sg132
I5
sS'exp_key'
p152
NsS'version'
p153
I0
sS'result'
p154
(dp155
S'status'
p156
S'ok'
p157
sS'loss'
p158
F0.0093
ssS'owner'
p159
NsS'spec'
p160
Nsa(dp161
S'refresh_time'
p162
g10
(S'\x07\xe3\n\x0e\x04\x16\x0f\x06\xbe\x90'
p163
tp164
Rp165
sS'book_time'
p166
g10
(S'\x07\xe3\n\x0e\x03*\x18\x0e%\x18'
p167
tp168
Rp169
sS'misc'
p170
(dp171
S'tid'
p172
I6
sS'idxs'
p173
(dp174
S'units1'
p175
(lp176
I6
asS'units2'
p177
(lp178
I6
asS'batch_size'
p179
(lp180
I6
assS'cmd'
p181
(S'domain_attachment'
p182
S'FMinIter_Domain'
p183
tp184
sS'vals'
p185
(dp186
g175
(lp187
F10.0
asg177
(lp188
F40.0
asg179
(lp189
I0
assS'workdir'
p190
NssS'exp_key'
p191
NsS'owner'
p192
NsS'state'
p193
I2
sS'version'
p194
I0
sS'result'
p195
(dp196
S'status'
p197
S'ok'
p198
sS'loss'
p199
F0.0236
ssg172
I6
sS'spec'
p200
Nsa(dp201
S'refresh_time'
p202
g10
(S'\x07\xe3\n\x0e\x06\n\x0c\x04\xc2\xc0'
p203
tp204
Rp205
sS'book_time'
p206
g10
(S'\x07\xe3\n\x0e\x04\x16\x0f\x07\x00\xf8'
p207
tp208
Rp209
sS'misc'
p210
(dp211
S'tid'
p212
I7
sS'idxs'
p213
(dp214
S'units1'
p215
(lp216
I7
asS'units2'
p217
(lp218
I7
asS'batch_size'
p219
(lp220
I7
assS'cmd'
p221
(S'domain_attachment'
p222
S'FMinIter_Domain'
p223
tp224
sS'vals'
p225
(dp226
g215
(lp227
F70.0
asg217
(lp228
F25.0
asg219
(lp229
I0
assS'workdir'
p230
NssS'state'
p231
I2
sg212
I7
sS'exp_key'
p232
NsS'version'
p233
I0
sS'result'
p234
(dp235
S'status'
p236
S'ok'
p237
sS'loss'
p238
F0.0076
ssS'owner'
p239
NsS'spec'
p240
Nsa(dp241
S'refresh_time'
p242
g10
(S'\x07\xe3\n\x0e\x0628\no\xe0'
p243
tp244
Rp245
sS'book_time'
p246
g10
(S'\x07\xe3\n\x0e\x06\n\x0c\x05\x0c\xf8'
p247
tp248
Rp249
sS'misc'
p250
(dp251
S'tid'
p252
I8
sS'idxs'
p253
(dp254
S'units1'
p255
(lp256
I8
asS'units2'
p257
(lp258
I8
asS'batch_size'
p259
(lp260
I8
assS'cmd'
p261
(S'domain_attachment'
p262
S'FMinIter_Domain'
p263
tp264
sS'vals'
p265
(dp266
g255
(lp267
F45.0
asg257
(lp268
F40.0
asg259
(lp269
I0
assS'workdir'
p270
NssS'exp_key'
p271
NsS'owner'
p272
NsS'state'
p273
I2
sS'version'
p274
I0
sS'result'
p275
(dp276
S'status'
p277
S'ok'
p278
sS'loss'
p279
F0.0121
ssg252
I8
sS'spec'
p280
Nsa(dp281
S'refresh_time'
p282
g10
(S'\x07\xe3\n\x0e\x07##\x07\x8d\x98'
p283
tp284
Rp285
sS'book_time'
p286
g10
(S'\x07\xe3\n\x0e\x0628\n\xa2\xa8'
p287
tp288
Rp289
sS'misc'
p290
(dp291
S'tid'
p292
I9
sS'idxs'
p293
(dp294
S'units1'
p295
(lp296
I9
asS'units2'
p297
(lp298
I9
asS'batch_size'
p299
(lp300
I9
assS'cmd'
p301
(S'domain_attachment'
p302
S'FMinIter_Domain'
p303
tp304
sS'vals'
p305
(dp306
g295
(lp307
F60.0
asg297
(lp308
F30.0
asg299
(lp309
I0
assS'workdir'
p310
NssS'state'
p311
I2
sg292
I9
sS'exp_key'
p312
NsS'version'
p313
I0
sS'result'
p314
(dp315
S'status'
p316
S'ok'
p317
sS'loss'
p318
F0.0082
ssS'owner'
p319
NsS'spec'
p320
Nsa(dp321
S'refresh_time'
p322
g10
(S'\x07\xe3\n\x0e\t\x01\x05\n\x12 '
p323
tp324
Rp325
sS'book_time'
p326
g10
(S'\x07\xe3\n\x0e\x07##\x07\xc4H'
p327
tp328
Rp329
sS'misc'
p330
(dp331
S'tid'
p332
I10
sS'idxs'
p333
(dp334
S'units1'
p335
(lp336
I10
asS'units2'
p337
(lp338
I10
asS'batch_size'
p339
(lp340
I10
assS'cmd'
p341
(S'domain_attachment'
p342
S'FMinIter_Domain'
p343
tp344
sS'vals'
p345
(dp346
g335
(lp347
F95.0
asg337
(lp348
F80.0
asg339
(lp349
I0
assS'workdir'
p350
NssS'exp_key'
p351
NsS'owner'
p352
NsS'state'
p353
I2
sS'version'
p354
I0
sS'result'
p355
(dp356
S'status'
p357
S'ok'
p358
sS'loss'
p359
F0.0073
ssg332
I10
sS'spec'
p360
Nsa(dp361
S'refresh_time'
p362
g10
(S'\x07\xe3\n\x0e\t04\x00\xb7\x98'
p363
tp364
Rp365
sS'book_time'
p366
g10
(S'\x07\xe3\n\x0e\t\x01\x05\nL\xb8'
p367
tp368
Rp369
sS'misc'
p370
(dp371
S'tid'
p372
I11
sS'idxs'
p373
(dp374
S'units1'
p375
(lp376
I11
asS'units2'
p377
(lp378
I11
asS'batch_size'
p379
(lp380
I11
assS'cmd'
p381
(S'domain_attachment'
p382
S'FMinIter_Domain'
p383
tp384
sS'vals'
p385
(dp386
g375
(lp387
F95.0
asg377
(lp388
F0.0
asg379
(lp389
I0
assS'workdir'
p390
NssS'state'
p391
I2
sg372
I11
sS'exp_key'
p392
NsS'version'
p393
I0
sS'result'
p394
(dp395
S'status'
p396
S'ok'
p397
sS'loss'
p398
F0.0085
ssS'owner'
p399
NsS'spec'
p400
Nsa(dp401
S'refresh_time'
p402
g10
(S'\x07\xe3\n\x0e\n\x12\x16\r\xa8\x18'
p403
tp404
Rp405
sS'book_time'
p406
g10
(S'\x07\xe3\n\x0e\t04\x00\xf20'
p407
tp408
Rp409
sS'misc'
p410
(dp411
S'tid'
p412
I12
sS'idxs'
p413
(dp414
S'units1'
p415
(lp416
I12
asS'units2'
p417
(lp418
I12
asS'batch_size'
p419
(lp420
I12
assS'cmd'
p421
(S'domain_attachment'
p422
S'FMinIter_Domain'
p423
tp424
sS'vals'
p425
(dp426
g415
(lp427
F30.0
asg417
(lp428
F35.0
asg419
(lp429
I0
assS'workdir'
p430
NssS'exp_key'
p431
NsS'owner'
p432
NsS'state'
p433
I2
sS'version'
p434
I0
sS'result'
p435
(dp436
S'status'
p437
S'ok'
p438
sS'loss'
p439
F0.0096
ssg412
I12
sS'spec'
p440
Nsa(dp441
S'refresh_time'
p442
g10
(S'\x07\xe3\n\x0e\x0b\x06\x02\x04:\x08'
p443
tp444
Rp445
sS'book_time'
p446
g10
(S'\x07\xe3\n\x0e\n\x12\x16\r\xe2\xb0'
p447
tp448
Rp449
sS'misc'
p450
(dp451
S'tid'
p452
I13
sS'idxs'
p453
(dp454
S'units1'
p455
(lp456
I13
asS'units2'
p457
(lp458
I13
asS'batch_size'
p459
(lp460
I13
assS'cmd'
p461
(S'domain_attachment'
p462
S'FMinIter_Domain'
p463
tp464
sS'vals'
p465
(dp466
g455
(lp467
F65.0
asg457
(lp468
F65.0
asg459
(lp469
I0
assS'workdir'
p470
NssS'state'
p471
I2
sg452
I13
sS'exp_key'
p472
NsS'version'
p473
I0
sS'result'
p474
(dp475
S'status'
p476
S'ok'
p477
sS'loss'
p478
F0.0091
ssS'owner'
p479
NsS'spec'
p480
NsasS'_exp_key'
p481
NsS'attachments'
p482
(dp483
sS'_dynamic_trials'
p484
(lp485
g8
ag49
ag67
ag85
ag103
ag121
ag161
ag201
ag241
ag281
ag321
ag361
ag401
ag441
asS'_ids'
p486
c__builtin__
set
p487
((lp488
I0
aI1
aI2
aI3
aI4
aI5
aI6
aI7
aI8
aI9
aI10
aI11
aI12
aI13
atp489
Rp490
sb.