ccopy_reg
_reconstructor
p0
(chyperopt.base
Trials
p1
c__builtin__
object
p2
Ntp3
Rp4
(dp5
S'_trials'
p6
(lp7
(dp8
S'refresh_time'
p9
cdatetime
datetime
p10
(S'\x07\xe3\n\t\x15;\x12\x0e\xfb\xf0'
p11
tp12
Rp13
sS'book_time'
p14
g10
(S'\x07\xe3\n\t\x15\x0c\x03\x05\xfb@'
p15
tp16
Rp17
sS'misc'
p18
(dp19
S'tid'
p20
I0
sS'idxs'
p21
(dp22
S'layers'
p23
(lp24
I0
asS'n_nodes_3_0'
p25
(lp26
I0
asS'n_nodes_3_2'
p27
(lp28
I0
asS'n_nodes_3_1'
p29
(lp30
I0
assS'cmd'
p31
(S'domain_attachment'
p32
S'FMinIter_Domain'
p33
tp34
sS'vals'
p35
(dp36
g23
(lp37
I0
asg25
(lp38
F80.0
asg27
(lp39
F40.0
asg29
(lp40
F60.0
assS'workdir'
p41
NssS'exp_key'
p42
NsS'owner'
p43
NsS'state'
p44
I2
sS'version'
p45
I0
sS'result'
p46
(dp47
S'status'
p48
S'ok'
p49
sS'loss'
p50
F0.1002
ssg20
I0
sS'spec'
p51
Nsa(dp52
g9
g10
(S'\x07\xe3\n\t\x16*+\x01<h'
p53
tp54
Rp55
sg14
g10
(S'\x07\xe3\n\t\x15;\x12\x0f\x03\xc0'
p56
tp57
Rp58
sg18
(dp59
g20
I1
sg21
(dp60
g23
(lp61
I1
asg25
(lp62
I1
asg27
(lp63
I1
asg29
(lp64
I1
assg31
(g32
g33
tp65
sg35
(dp66
g23
(lp67
I0
asg25
(lp68
F40.0
asg27
(lp69
F0.0
asg29
(lp70
F100.0
assg41
Nssg42
Nsg43
Nsg44
I2
sg45
I0
sg46
(dp71
g48
g49
sg50
F0.1002
ssg20
I1
sg51
Nsa(dp72
g9
g10
(S'\x07\xe3\n\t\x17\x1a \x02\xb3h'
p73
tp74
Rp75
sg14
g10
(S'\x07\xe3\n\t\x16*+\x01D8'
p76
tp77
Rp78
sg18
(dp79
g20
I2
sg21
(dp80
g23
(lp81
I2
asg25
(lp82
I2
asg27
(lp83
I2
asg29
(lp84
I2
assg31
(g32
g33
tp85
sg35
(dp86
g23
(lp87
I0
asg25
(lp88
F40.0
asg27
(lp89
F100.0
asg29
(lp90
F0.0
assg41
Nssg42
Nsg43
Nsg44
I2
sg45
I0
sg46
(dp91
g48
g49
sg50
F0.1004
ssg20
I2
sg51
Nsa(dp92
g9
g10
(S'\x07\xe3\n\n\x00\x10\x0b\x0cwh'
p93
tp94
Rp95
sg14
g10
(S'\x07\xe3\n\t\x17\x1a \x02\xbb8'
p96
tp97
Rp98
sg18
(dp99
g20
I3
sg21
(dp100
g23
(lp101
I3
asg25
(lp102
I3
asg27
(lp103
I3
asg29
(lp104
I3
assg31
(g32
g33
tp105
sg35
(dp106
g23
(lp107
I0
asg25
(lp108
F80.0
asg27
(lp109
F60.0
asg29
(lp110
F20.0
assg41
Nssg42
Nsg43
Nsg44
I2
sg45
I0
sg46
(dp111
g48
g49
sg50
F0.1002
ssg20
I3
sg51
Nsa(dp112
g9
g10
(S'\x07\xe3\n\n\x01\x19:\x04\xa7h'
p113
tp114
Rp115
sg14
g10
(S'\x07\xe3\n\n\x00\x10\x0b\x0c\x83 '
p116
tp117
Rp118
sg18
(dp119
g20
I4
sg21
(dp120
g23
(lp121
I4
asg25
(lp122
I4
asg27
(lp123
I4
asg29
(lp124
I4
assg31
(g32
g33
tp125
sg35
(dp126
g23
(lp127
I0
asg25
(lp128
F0.0
asg27
(lp129
F80.0
asg29
(lp130
F60.0
assg41
Nssg42
Nsg43
Nsg44
I2
sg45
I0
sg46
(dp131
g48
g49
sg50
F0.1003
ssg20
I4
sg51
Nsa(dp132
S'refresh_time'
p133
g10
(S'\x07\xe3\n\n\x02\x15(\x01\x01\xd0'
p134
tp135
Rp136
sS'book_time'
p137
g10
(S'\x07\xe3\n\n\x01\x19:\x04\xca\x90'
p138
tp139
Rp140
sS'misc'
p141
(dp142
S'tid'
p143
I5
sS'idxs'
p144
(dp145
S'layers'
p146
(lp147
I5
asS'n_nodes_3_0'
p148
(lp149
I5
asS'n_nodes_3_2'
p150
(lp151
I5
asS'n_nodes_3_1'
p152
(lp153
I5
assS'cmd'
p154
(S'domain_attachment'
p155
S'FMinIter_Domain'
p156
tp157
sS'vals'
p158
(dp159
g146
(lp160
I0
asg148
(lp161
F80.0
asg150
(lp162
F20.0
asg152
(lp163
F80.0
assS'workdir'
p164
NssS'state'
p165
I2
sg143
I5
sS'exp_key'
p166
NsS'version'
p167
I0
sS'result'
p168
(dp169
S'status'
p170
S'ok'
p171
sS'loss'
p172
F0.1004
ssS'owner'
p173
NsS'spec'
p174
Nsa(dp175
S'refresh_time'
p176
g10
(S'\x07\xe3\n\n\x03\x11\x19\x04\x16\xe0'
p177
tp178
Rp179
sS'book_time'
p180
g10
(S'\x07\xe3\n\n\x02\x15(\x01!\x10'
p181
tp182
Rp183
sS'misc'
p184
(dp185
S'tid'
p186
I6
sS'idxs'
p187
(dp188
S'layers'
p189
(lp190
I6
asS'n_nodes_3_0'
p191
(lp192
I6
asS'n_nodes_3_2'
p193
(lp194
I6
asS'n_nodes_3_1'
p195
(lp196
I6
assS'cmd'
p197
(S'domain_attachment'
p198
S'FMinIter_Domain'
p199
tp200
sS'vals'
p201
(dp202
g189
(lp203
I0
asg191
(lp204
F60.0
asg193
(lp205
F80.0
asg195
(lp206
F100.0
assS'workdir'
p207
NssS'exp_key'
p208
NsS'owner'
p209
NsS'state'
p210
I2
sS'version'
p211
I0
sS'result'
p212
(dp213
S'status'
p214
S'ok'
p215
sS'loss'
p216
F0.1003
ssg186
I6
sS'spec'
p217
Nsa(dp218
S'refresh_time'
p219
g10
(S'\x07\xe3\n\n\x04\x06&\x07\xdf\xa0'
p220
tp221
Rp222
sS'book_time'
p223
g10
(S'\x07\xe3\n\n\x03\x11\x19\x04=\xf0'
p224
tp225
Rp226
sS'misc'
p227
(dp228
S'tid'
p229
I7
sS'idxs'
p230
(dp231
S'layers'
p232
(lp233
I7
asS'n_nodes_3_0'
p234
(lp235
I7
asS'n_nodes_3_2'
p236
(lp237
I7
asS'n_nodes_3_1'
p238
(lp239
I7
assS'cmd'
p240
(S'domain_attachment'
p241
S'FMinIter_Domain'
p242
tp243
sS'vals'
p244
(dp245
g232
(lp246
I0
asg234
(lp247
F20.0
asg236
(lp248
F60.0
asg238
(lp249
F40.0
assS'workdir'
p250
NssS'state'
p251
I2
sg229
I7
sS'exp_key'
p252
NsS'version'
p253
I0
sS'result'
p254
(dp255
S'status'
p256
S'ok'
p257
sS'loss'
p258
F0.1003
ssS'owner'
p259
NsS'spec'
p260
Nsa(dp261
S'refresh_time'
p262
g10
(S'\x07\xe3\n\n\x05\x01\x1b\x05SH'
p263
tp264
Rp265
sS'book_time'
p266
g10
(S'\x07\xe3\n\n\x04\x06&\x08\n\x98'
p267
tp268
Rp269
sS'misc'
p270
(dp271
S'tid'
p272
I8
sS'idxs'
p273
(dp274
S'layers'
p275
(lp276
I8
asS'n_nodes_3_0'
p277
(lp278
I8
asS'n_nodes_3_2'
p279
(lp280
I8
asS'n_nodes_3_1'
p281
(lp282
I8
assS'cmd'
p283
(S'domain_attachment'
p284
S'FMinIter_Domain'
p285
tp286
sS'vals'
p287
(dp288
g275
(lp289
I0
asg277
(lp290
F60.0
asg279
(lp291
F100.0
asg281
(lp292
F20.0
assS'workdir'
p293
NssS'exp_key'
p294
NsS'owner'
p295
NsS'state'
p296
I2
sS'version'
p297
I0
sS'result'
p298
(dp299
S'status'
p300
S'ok'
p301
sS'loss'
p302
F0.1002
ssg272
I8
sS'spec'
p303
Nsa(dp304
S'refresh_time'
p305
g10
(S'\x07\xe3\n\n\x057;\x02\x17('
p306
tp307
Rp308
sS'book_time'
p309
g10
(S'\x07\xe3\n\n\x05\x01\x1b\x05~@'
p310
tp311
Rp312
sS'misc'
p313
(dp314
S'tid'
p315
I9
sS'idxs'
p316
(dp317
S'layers'
p318
(lp319
I9
asS'n_nodes_3_0'
p320
(lp321
I9
asS'n_nodes_3_2'
p322
(lp323
I9
asS'n_nodes_3_1'
p324
(lp325
I9
assS'cmd'
p326
(S'domain_attachment'
p327
S'FMinIter_Domain'
p328
tp329
sS'vals'
p330
(dp331
g318
(lp332
I0
asg320
(lp333
F20.0
asg322
(lp334
F40.0
asg324
(lp335
F80.0
assS'workdir'
p336
NssS'state'
p337
I2
sg315
I9
sS'exp_key'
p338
NsS'version'
p339
I0
sS'result'
p340
(dp341
S'status'
p342
S'ok'
p343
sS'loss'
p344
F0.1003
ssS'owner'
p345
NsS'spec'
p346
Nsa(dp347
S'refresh_time'
p348
g10
(S'\x07\xe3\n\n\x061\x11\t\x89h'
p349
tp350
Rp351
sS'book_time'
p352
g10
(S'\x07\xe3\n\n\x057;\x02:P'
p353
tp354
Rp355
sS'misc'
p356
(dp357
S'tid'
p358
I10
sS'idxs'
p359
(dp360
S'layers'
p361
(lp362
I10
asS'n_nodes_3_0'
p363
(lp364
I10
asS'n_nodes_3_2'
p365
(lp366
I10
asS'n_nodes_3_1'
p367
(lp368
I10
assS'cmd'
p369
(S'domain_attachment'
p370
S'FMinIter_Domain'
p371
tp372
sS'vals'
p373
(dp374
g361
(lp375
I0
asg363
(lp376
F40.0
asg365
(lp377
F80.0
asg367
(lp378
F20.0
assS'workdir'
p379
NssS'exp_key'
p380
NsS'owner'
p381
NsS'state'
p382
I2
sS'version'
p383
I0
sS'result'
p384
(dp385
S'status'
p386
S'ok'
p387
sS'loss'
p388
F0.1004
ssg358
I10
sS'spec'
p389
Nsa(dp390
S'refresh_time'
p391
g10
(S'\x07\xe3\n\n\x07+\x14\x0e\xd8\xc8'
p392
tp393
Rp394
sS'book_time'
p395
g10
(S'\x07\xe3\n\n\x061\x11\t\xb4`'
p396
tp397
Rp398
sS'misc'
p399
(dp400
S'tid'
p401
I11
sS'idxs'
p402
(dp403
S'layers'
p404
(lp405
I11
asS'n_nodes_3_0'
p406
(lp407
I11
asS'n_nodes_3_2'
p408
(lp409
I11
asS'n_nodes_3_1'
p410
(lp411
I11
assS'cmd'
p412
(S'domain_attachment'
p413
S'FMinIter_Domain'
p414
tp415
sS'vals'
p416
(dp417
g404
(lp418
I0
asg406
(lp419
F60.0
asg408
(lp420
F60.0
asg410
(lp421
F0.0
assS'workdir'
p422
NssS'state'
p423
I2
sg401
I11
sS'exp_key'
p424
NsS'version'
p425
I0
sS'result'
p426
(dp427
S'status'
p428
S'ok'
p429
sS'loss'
p430
F0.1002
ssS'owner'
p431
NsS'spec'
p432
Nsa(dp433
S'refresh_time'
p434
g10
(S'\x07\xe3\n\n\x08&\x05\x02\xaf\x80'
p435
tp436
Rp437
sS'book_time'
p438
g10
(S'\x07\xe3\n\n\x07+\x14\x0e\xff\xd8'
p439
tp440
Rp441
sS'misc'
p442
(dp443
S'tid'
p444
I12
sS'idxs'
p445
(dp446
S'layers'
p447
(lp448
I12
asS'n_nodes_3_0'
p449
(lp450
I12
asS'n_nodes_3_2'
p451
(lp452
I12
asS'n_nodes_3_1'
p453
(lp454
I12
assS'cmd'
p455
(S'domain_attachment'
p456
S'FMinIter_Domain'
p457
tp458
sS'vals'
p459
(dp460
g447
(lp461
I0
asg449
(lp462
F100.0
asg451
(lp463
F60.0
asg453
(lp464
F80.0
assS'workdir'
p465
NssS'exp_key'
p466
NsS'owner'
p467
NsS'state'
p468
I2
sS'version'
p469
I0
sS'result'
p470
(dp471
S'status'
p472
S'ok'
p473
sS'loss'
p474
F0.1004
ssg444
I12
sS'spec'
p475
Nsa(dp476
S'refresh_time'
p477
g10
(S'\x07\xe3\n\n\t \x0e\x03v\xb8'
p478
tp479
Rp480
sS'book_time'
p481
g10
(S'\x07\xe3\n\n\x08&\x05\x02\xdax'
p482
tp483
Rp484
sS'misc'
p485
(dp486
S'tid'
p487
I13
sS'idxs'
p488
(dp489
S'layers'
p490
(lp491
I13
asS'n_nodes_3_0'
p492
(lp493
I13
asS'n_nodes_3_2'
p494
(lp495
I13
asS'n_nodes_3_1'
p496
(lp497
I13
assS'cmd'
p498
(S'domain_attachment'
p499
S'FMinIter_Domain'
p500
tp501
sS'vals'
p502
(dp503
g490
(lp504
I0
asg492
(lp505
F20.0
asg494
(lp506
F100.0
asg496
(lp507
F60.0
assS'workdir'
p508
NssS'state'
p509
I2
sg487
I13
sS'exp_key'
p510
NsS'version'
p511
I0
sS'result'
p512
(dp513
S'status'
p514
S'ok'
p515
sS'loss'
p516
F0.1004
ssS'owner'
p517
NsS'spec'
p518
Nsa(dp519
S'refresh_time'
p520
g10
(S'\x07\xe3\n\n\n\x1a:\x03\x8e('
p521
tp522
Rp523
sS'book_time'
p524
g10
(S'\x07\xe3\n\n\t \x0e\x03\xa1\xb0'
p525
tp526
Rp527
sS'misc'
p528
(dp529
S'tid'
p530
I14
sS'idxs'
p531
(dp532
S'layers'
p533
(lp534
I14
asS'n_nodes_3_0'
p535
(lp536
I14
asS'n_nodes_3_2'
p537
(lp538
I14
asS'n_nodes_3_1'
p539
(lp540
I14
assS'cmd'
p541
(S'domain_attachment'
p542
S'FMinIter_Domain'
p543
tp544
sS'vals'
p545
(dp546
g533
(lp547
I0
asg535
(lp548
F60.0
asg537
(lp549
F80.0
asg539
(lp550
F80.0
assS'workdir'
p551
NssS'exp_key'
p552
NsS'owner'
p553
NsS'state'
p554
I2
sS'version'
p555
I0
sS'result'
p556
(dp557
S'status'
p558
S'ok'
p559
sS'loss'
p560
F0.0964
ssg530
I14
sS'spec'
p561
Nsa(dp562
S'refresh_time'
p563
g10
(S'\x07\xe3\n\n\x0b\x15\x00\x022\x80'
p564
tp565
Rp566
sS'book_time'
p567
g10
(S'\x07\xe3\n\n\n\x1a:\x03\xbd\x08'
p568
tp569
Rp570
sS'misc'
p571
(dp572
S'tid'
p573
I15
sS'idxs'
p574
(dp575
S'layers'
p576
(lp577
I15
asS'n_nodes_3_0'
p578
(lp579
I15
asS'n_nodes_3_2'
p580
(lp581
I15
asS'n_nodes_3_1'
p582
(lp583
I15
assS'cmd'
p584
(S'domain_attachment'
p585
S'FMinIter_Domain'
p586
tp587
sS'vals'
p588
(dp589
g576
(lp590
I0
asg578
(lp591
F20.0
asg580
(lp592
F80.0
asg582
(lp593
F80.0
assS'workdir'
p594
NssS'state'
p595
I2
sg573
I15
sS'exp_key'
p596
NsS'version'
p597
I0
sS'result'
p598
(dp599
S'status'
p600
S'ok'
p601
sS'loss'
p602
F0.0964
ssS'owner'
p603
NsS'spec'
p604
NsasS'_exp_key'
p605
NsS'attachments'
p606
(dp607
sS'_dynamic_trials'
p608
(lp609
g8
ag52
ag72
ag92
ag112
ag132
ag175
ag218
ag261
ag304
ag347
ag390
ag433
ag476
ag519
ag562
asS'_ids'
p610
c__builtin__
set
p611
((lp612
I0
aI1
aI2
aI3
aI4
aI5
aI6
aI7
aI8
aI9
aI10
aI11
aI12
aI13
aI14
aI15
atp613
Rp614
sb.