ccopy_reg
_reconstructor
p0
(chyperopt.base
Trials
p1
c__builtin__
object
p2
Ntp3
Rp4
(dp5
S'_trials'
p6
(lp7
(dp8
S'refresh_time'
p9
cdatetime
datetime
p10
(S'\x07\xe3\n\t\x16\x00\x1f\x02x\xd0'
p11
tp12
Rp13
sS'book_time'
p14
g10
(S'\x07\xe3\n\t\x1461\t\x148'
p15
tp16
Rp17
sS'misc'
p18
(dp19
S'tid'
p20
I0
sS'idxs'
p21
(dp22
S'units1'
p23
(lp24
I0
asS'units2'
p25
(lp26
I0
asS'batch_size'
p27
(lp28
I0
assS'cmd'
p29
(S'domain_attachment'
p30
S'FMinIter_Domain'
p31
tp32
sS'vals'
p33
(dp34
g23
(lp35
F90.0
asg25
(lp36
F40.0
asg27
(lp37
I0
assS'workdir'
p38
NssS'state'
p39
I2
sg20
I0
sS'exp_key'
p40
NsS'version'
p41
I0
sS'result'
p42
(dp43
S'status'
p44
S'ok'
p45
sS'loss'
p46
F0.0099
ssS'owner'
p47
NsS'spec'
p48
Nsa(dp49
g9
g10
(S'\x07\xe3\n\t\x16\x0e#\n\x12 '
p50
tp51
Rp52
sg14
g10
(S'\x07\xe3\n\t\x16\x00\x1f\x02|\xb8'
p53
tp54
Rp55
sg18
(dp56
g20
I1
sg21
(dp57
g23
(lp58
I1
asg25
(lp59
I1
asg27
(lp60
I1
assg29
(g30
g31
tp61
sg33
(dp62
g23
(lp63
F5.0
asg25
(lp64
F20.0
asg27
(lp65
I0
assg38
Nssg39
I2
sg20
I1
sg40
Nsg41
I0
sg42
(dp66
g44
g45
sg46
F0.0383
ssg47
Nsg48
Nsa(dp67
g9
g10
(S'\x07\xe3\n\t\x17\x1a\x17\x08\xf8\xe0'
p68
tp69
Rp70
sg14
g10
(S'\x07\xe3\n\t\x16\x0e#\n\x19\xf0'
p71
tp72
Rp73
sg18
(dp74
g20
I2
sg21
(dp75
g23
(lp76
I2
asg25
(lp77
I2
asg27
(lp78
I2
assg29
(g30
g31
tp79
sg33
(dp80
g23
(lp81
F85.0
asg25
(lp82
F50.0
asg27
(lp83
I0
assg38
Nssg39
I2
sg20
I2
sg40
Nsg41
I0
sg42
(dp84
g44
g45
sg46
F0.0117
ssg47
Nsg48
Nsa(dp85
g9
g10
(S'\x07\xe3\n\n\x00\'"\n\xa2\xa8'
p86
tp87
Rp88
sg14
g10
(S'\x07\xe3\n\t\x17\x1a\x17\t\x04\x98'
p89
tp90
Rp91
sg18
(dp92
g20
I3
sg21
(dp93
g23
(lp94
I3
asg25
(lp95
I3
asg27
(lp96
I3
assg29
(g30
g31
tp97
sg33
(dp98
g23
(lp99
F60.0
asg25
(lp100
F40.0
asg27
(lp101
I0
assg38
Nssg39
I2
sg20
I3
sg40
Nsg41
I0
sg42
(dp102
g44
g45
sg46
F0.0073
ssg47
Nsg48
Nsa(dp103
g9
g10
(S"\x07\xe3\n\n\x01\x084\r'0"
p104
tp105
Rp106
sg14
g10
(S'\x07\xe3\n\n\x00\'"\n\xb2H'
p107
tp108
Rp109
sg18
(dp110
g20
I4
sg21
(dp111
g23
(lp112
I4
asg25
(lp113
I4
asg27
(lp114
I4
assg29
(g30
g31
tp115
sg33
(dp116
g23
(lp117
F25.0
asg25
(lp118
F10.0
asg27
(lp119
I0
assg38
Nssg39
I2
sg20
I4
sg40
Nsg41
I0
sg42
(dp120
g44
g45
sg46
F0.011
ssg47
Nsg48
Nsa(dp121
S'refresh_time'
p122
g10
(S'\x07\xe3\n\n\x011\x07\x05f\xd0'
p123
tp124
Rp125
sS'book_time'
p126
g10
(S'\x07\xe3\n\n\x01\x084\rFp'
p127
tp128
Rp129
sS'misc'
p130
(dp131
S'tid'
p132
I5
sS'idxs'
p133
(dp134
S'units1'
p135
(lp136
I5
asS'units2'
p137
(lp138
I5
asS'batch_size'
p139
(lp140
I5
assS'cmd'
p141
(S'domain_attachment'
p142
S'FMinIter_Domain'
p143
tp144
sS'vals'
p145
(dp146
g135
(lp147
F40.0
asg137
(lp148
F35.0
asg139
(lp149
I0
assS'workdir'
p150
NssS'exp_key'
p151
NsS'owner'
p152
NsS'state'
p153
I2
sS'version'
p154
I0
sS'result'
p155
(dp156
S'status'
p157
S'ok'
p158
sS'loss'
p159
F0.009
ssg132
I5
sS'spec'
p160
Nsa(dp161
S'refresh_time'
p162
g10
(S'\x07\xe3\n\n\x02\n\x07\x0e{\x08'
p163
tp164
Rp165
sS'book_time'
p166
g10
(S'\x07\xe3\n\n\x011\x07\x05\x86\x10'
p167
tp168
Rp169
sS'misc'
p170
(dp171
S'tid'
p172
I6
sS'idxs'
p173
(dp174
S'units1'
p175
(lp176
I6
asS'units2'
p177
(lp178
I6
asS'batch_size'
p179
(lp180
I6
assS'cmd'
p181
(S'domain_attachment'
p182
S'FMinIter_Domain'
p183
tp184
sS'vals'
p185
(dp186
g175
(lp187
F10.0
asg177
(lp188
F85.0
asg179
(lp189
I0
assS'workdir'
p190
NssS'state'
p191
I2
sg172
I6
sS'exp_key'
p192
NsS'version'
p193
I0
sS'result'
p194
(dp195
S'status'
p196
S'ok'
p197
sS'loss'
p198
F0.0237
ssS'owner'
p199
NsS'spec'
p200
Nsa(dp201
S'refresh_time'
p202
g10
(S'\x07\xe3\n\n\x03\x17\x16\x0ck\xb0'
p203
tp204
Rp205
sS'book_time'
p206
g10
(S'\x07\xe3\n\n\x02\n\x07\x0e\x9e0'
p207
tp208
Rp209
sS'misc'
p210
(dp211
S'tid'
p212
I7
sS'idxs'
p213
(dp214
S'units1'
p215
(lp216
I7
asS'units2'
p217
(lp218
I7
asS'batch_size'
p219
(lp220
I7
assS'cmd'
p221
(S'domain_attachment'
p222
S'FMinIter_Domain'
p223
tp224
sS'vals'
p225
(dp226
g215
(lp227
F80.0
asg217
(lp228
F50.0
asg219
(lp229
I0
assS'workdir'
p230
NssS'exp_key'
p231
NsS'owner'
p232
NsS'state'
p233
I2
sS'version'
p234
I0
sS'result'
p235
(dp236
S'status'
p237
S'ok'
p238
sS'loss'
p239
F0.0156
ssg212
I7
sS'spec'
p240
Nsa(dp241
S'refresh_time'
p242
g10
(S'\x07\xe3\n\n\x03&\x18\x0by\x80'
p243
tp244
Rp245
sS'book_time'
p246
g10
(S'\x07\xe3\n\n\x03\x17\x16\x0c\x92\xc0'
p247
tp248
Rp249
sS'misc'
p250
(dp251
S'tid'
p252
I8
sS'idxs'
p253
(dp254
S'units1'
p255
(lp256
I8
asS'units2'
p257
(lp258
I8
asS'batch_size'
p259
(lp260
I8
assS'cmd'
p261
(S'domain_attachment'
p262
S'FMinIter_Domain'
p263
tp264
sS'vals'
p265
(dp266
g255
(lp267
F5.0
asg257
(lp268
F95.0
asg259
(lp269
I0
assS'workdir'
p270
NssS'state'
p271
I2
sg252
I8
sS'exp_key'
p272
NsS'version'
p273
I0
sS'result'
p274
(dp275
S'status'
p276
S'ok'
p277
sS'loss'
p278
F0.0385
ssS'owner'
p279
NsS'spec'
p280
Nsa(dp281
S'refresh_time'
p282
g10
(S'\x07\xe3\n\n\x04\x11\x06\x02&\xc8'
p283
tp284
Rp285
sS'book_time'
p286
g10
(S'\x07\xe3\n\n\x03&\x18\x0b\x98\xc0'
p287
tp288
Rp289
sS'misc'
p290
(dp291
S'tid'
p292
I9
sS'idxs'
p293
(dp294
S'units1'
p295
(lp296
I9
asS'units2'
p297
(lp298
I9
asS'batch_size'
p299
(lp300
I9
assS'cmd'
p301
(S'domain_attachment'
p302
S'FMinIter_Domain'
p303
tp304
sS'vals'
p305
(dp306
g295
(lp307
F60.0
asg297
(lp308
F20.0
asg299
(lp309
I0
assS'workdir'
p310
NssS'exp_key'
p311
NsS'owner'
p312
NsS'state'
p313
I2
sS'version'
p314
I0
sS'result'
p315
(dp316
S'status'
p317
S'ok'
p318
sS'loss'
p319
F0.0082
ssg292
I9
sS'spec'
p320
Nsa(dp321
S'refresh_time'
p322
g10
(S'\x07\xe3\n\n\x04-\x1e\n\xc1\xe8'
p323
tp324
Rp325
sS'book_time'
p326
g10
(S'\x07\xe3\n\n\x04\x11\x06\x02F\x08'
p327
tp328
Rp329
sS'misc'
p330
(dp331
S'tid'
p332
I10
sS'idxs'
p333
(dp334
S'units1'
p335
(lp336
I10
asS'units2'
p337
(lp338
I10
asS'batch_size'
p339
(lp340
I10
assS'cmd'
p341
(S'domain_attachment'
p342
S'FMinIter_Domain'
p343
tp344
sS'vals'
p345
(dp346
g335
(lp347
F30.0
asg337
(lp348
F35.0
asg339
(lp349
I0
assS'workdir'
p350
NssS'state'
p351
I2
sg332
I10
sS'exp_key'
p352
NsS'version'
p353
I0
sS'result'
p354
(dp355
S'status'
p356
S'ok'
p357
sS'loss'
p358
F0.0097
ssS'owner'
p359
NsS'spec'
p360
Nsa(dp361
S'refresh_time'
p362
g10
(S'\x07\xe3\n\n\x05,#\x08\xcd\xe8'
p363
tp364
Rp365
sS'book_time'
p366
g10
(S'\x07\xe3\n\n\x04-\x1e\x0e\x19`'
p367
tp368
Rp369
sS'misc'
p370
(dp371
S'tid'
p372
I11
sS'idxs'
p373
(dp374
S'units1'
p375
(lp376
I11
asS'units2'
p377
(lp378
I11
asS'batch_size'
p379
(lp380
I11
assS'cmd'
p381
(S'domain_attachment'
p382
S'FMinIter_Domain'
p383
tp384
sS'vals'
p385
(dp386
g375
(lp387
F80.0
asg377
(lp388
F65.0
asg379
(lp389
I0
assS'workdir'
p390
NssS'exp_key'
p391
NsS'owner'
p392
NsS'state'
p393
I2
sS'version'
p394
I0
sS'result'
p395
(dp396
S'status'
p397
S'ok'
p398
sS'loss'
p399
F0.0124
ssg372
I11
sS'spec'
p400
Nsa(dp401
S'refresh_time'
p402
g10
(S'\x07\xe3\n\n\x06)7\x02i0'
p403
tp404
Rp405
sS'book_time'
p406
g10
(S'\x07\xe3\n\n\x05,#\x08\xed('
p407
tp408
Rp409
sS'misc'
p410
(dp411
S'tid'
p412
I12
sS'idxs'
p413
(dp414
S'units1'
p415
(lp416
I12
asS'units2'
p417
(lp418
I12
asS'batch_size'
p419
(lp420
I12
assS'cmd'
p421
(S'domain_attachment'
p422
S'FMinIter_Domain'
p423
tp424
sS'vals'
p425
(dp426
g415
(lp427
F70.0
asg417
(lp428
F85.0
asg419
(lp429
I0
assS'workdir'
p430
NssS'state'
p431
I2
sg412
I12
sS'exp_key'
p432
NsS'version'
p433
I0
sS'result'
p434
(dp435
S'status'
p436
S'ok'
p437
sS'loss'
p438
F0.0068
ssS'owner'
p439
NsS'spec'
p440
Nsa(dp441
S'refresh_time'
p442
g10
(S'\x07\xe3\n\n\x07\x18!\x03,\x80'
p443
tp444
Rp445
sS'book_time'
p446
g10
(S'\x07\xe3\n\n\x06)7\x02\x88p'
p447
tp448
Rp449
sS'misc'
p450
(dp451
S'tid'
p452
I13
sS'idxs'
p453
(dp454
S'units1'
p455
(lp456
I13
asS'units2'
p457
(lp458
I13
asS'batch_size'
p459
(lp460
I13
assS'cmd'
p461
(S'domain_attachment'
p462
S'FMinIter_Domain'
p463
tp464
sS'vals'
p465
(dp466
g455
(lp467
F70.0
asg457
(lp468
F20.0
asg459
(lp469
I0
assS'workdir'
p470
NssS'exp_key'
p471
NsS'owner'
p472
NsS'state'
p473
I2
sS'version'
p474
I0
sS'result'
p475
(dp476
S'status'
p477
S'ok'
p478
sS'loss'
p479
F0.0077
ssg452
I13
sS'spec'
p480
Nsa(dp481
S'refresh_time'
p482
g10
(S'\x07\xe3\n\n\x08\x1c\x0b\x04x\x88'
p483
tp484
Rp485
sS'book_time'
p486
g10
(S'\x07\xe3\n\n\x07\x18!\x03Wx'
p487
tp488
Rp489
sS'misc'
p490
(dp491
S'tid'
p492
I14
sS'idxs'
p493
(dp494
S'units1'
p495
(lp496
I14
asS'units2'
p497
(lp498
I14
asS'batch_size'
p499
(lp500
I14
assS'cmd'
p501
(S'domain_attachment'
p502
S'FMinIter_Domain'
p503
tp504
sS'vals'
p505
(dp506
g495
(lp507
F90.0
asg497
(lp508
F50.0
asg499
(lp509
I0
assS'workdir'
p510
NssS'state'
p511
I2
sg492
I14
sS'exp_key'
p512
NsS'version'
p513
I0
sS'result'
p514
(dp515
S'status'
p516
S'ok'
p517
sS'loss'
p518
F0.0102
ssS'owner'
p519
NsS'spec'
p520
Nsa(dp521
S'refresh_time'
p522
g10
(S'\x07\xe3\n\n\t\x048\x0b\x98\xc0'
p523
tp524
Rp525
sS'book_time'
p526
g10
(S'\x07\xe3\n\n\x08\x1c\x0b\x04\x9f\x98'
p527
tp528
Rp529
sS'misc'
p530
(dp531
S'tid'
p532
I15
sS'idxs'
p533
(dp534
S'units1'
p535
(lp536
I15
asS'units2'
p537
(lp538
I15
asS'batch_size'
p539
(lp540
I15
assS'cmd'
p541
(S'domain_attachment'
p542
S'FMinIter_Domain'
p543
tp544
sS'vals'
p545
(dp546
g535
(lp547
F45.0
asg537
(lp548
F30.0
asg539
(lp549
I0
assS'workdir'
p550
NssS'exp_key'
p551
NsS'owner'
p552
NsS'state'
p553
I2
sS'version'
p554
I0
sS'result'
p555
(dp556
S'status'
p557
S'ok'
p558
sS'loss'
p559
F0.0124
ssg532
I15
sS'spec'
p560
Nsa(dp561
S'refresh_time'
p562
g10
(S'\x07\xe3\n\n\n\x04\x00\x02m\x18'
p563
tp564
Rp565
sS'book_time'
p566
g10
(S'\x07\xe3\n\n\t\x048\x0b\xc3\xb8'
p567
tp568
Rp569
sS'misc'
p570
(dp571
S'tid'
p572
I16
sS'idxs'
p573
(dp574
S'units1'
p575
(lp576
I16
asS'units2'
p577
(lp578
I16
asS'batch_size'
p579
(lp580
I16
assS'cmd'
p581
(S'domain_attachment'
p582
S'FMinIter_Domain'
p583
tp584
sS'vals'
p585
(dp586
g575
(lp587
F70.0
asg577
(lp588
F90.0
asg579
(lp589
I0
assS'workdir'
p590
NssS'state'
p591
I2
sg572
I16
sS'exp_key'
p592
NsS'version'
p593
I0
sS'result'
p594
(dp595
S'status'
p596
S'ok'
p597
sS'loss'
p598
F0.0067
ssS'owner'
p599
NsS'spec'
p600
Nsa(dp601
S'refresh_time'
p602
g10
(S'\x07\xe3\n\n\n16\x04\x80X'
p603
tp604
Rp605
sS'book_time'
p606
g10
(S'\x07\xe3\n\n\n\x04\x00\x02\x94('
p607
tp608
Rp609
sS'misc'
p610
(dp611
S'tid'
p612
I17
sS'idxs'
p613
(dp614
S'units1'
p615
(lp616
I17
asS'units2'
p617
(lp618
I17
asS'batch_size'
p619
(lp620
I17
assS'cmd'
p621
(S'domain_attachment'
p622
S'FMinIter_Domain'
p623
tp624
sS'vals'
p625
(dp626
g615
(lp627
F45.0
asg617
(lp628
F95.0
asg619
(lp629
I0
assS'workdir'
p630
NssS'exp_key'
p631
NsS'owner'
p632
NsS'state'
p633
I2
sS'version'
p634
I0
sS'result'
p635
(dp636
S'status'
p637
S'ok'
p638
sS'loss'
p639
F0.013
ssg612
I17
sS'spec'
p640
Nsa(dp641
S'refresh_time'
p642
g10
(S'\x07\xe3\n\n\x0b\x05\x03\ry8'
p643
tp644
Rp645
sS'book_time'
p646
g10
(S'\x07\xe3\n\n\n16\x04\xabP'
p647
tp648
Rp649
sS'misc'
p650
(dp651
S'tid'
p652
I18
sS'idxs'
p653
(dp654
S'units1'
p655
(lp656
I18
asS'units2'
p657
(lp658
I18
asS'batch_size'
p659
(lp660
I18
assS'cmd'
p661
(S'domain_attachment'
p662
S'FMinIter_Domain'
p663
tp664
sS'vals'
p665
(dp666
g655
(lp667
F10.0
asg657
(lp668
F15.0
asg659
(lp669
I0
assS'workdir'
p670
NssS'state'
p671
I2
sg652
I18
sS'exp_key'
p672
NsS'version'
p673
I0
sS'result'
p674
(dp675
S'status'
p676
S'ok'
p677
sS'loss'
p678
F0.0236
ssS'owner'
p679
NsS'spec'
p680
NsasS'_exp_key'
p681
NsS'attachments'
p682
(dp683
sS'_dynamic_trials'
p684
(lp685
g8
ag49
ag67
ag85
ag103
ag121
ag161
ag201
ag241
ag281
ag321
ag361
ag401
ag441
ag481
ag521
ag561
ag601
ag641
asS'_ids'
p686
c__builtin__
set
p687
((lp688
I0
aI1
aI2
aI3
aI4
aI5
aI6
aI7
aI8
aI9
aI10
aI11
aI12
aI13
aI14
aI15
aI16
aI17
aI18
atp689
Rp690
sb.