ccopy_reg
_reconstructor
p0
(chyperopt.base
Trials
p1
c__builtin__
object
p2
Ntp3
Rp4
(dp5
S'_trials'
p6
(lp7
(dp8
S'refresh_time'
p9
cdatetime
datetime
p10
(S'\x07\xe3\n\r\x10\x13$\x02\x1b\x10'
p11
tp12
Rp13
sS'book_time'
p14
g10
(S'\x07\xe3\n\r\x0f\x11-\x08w\xf8'
p15
tp16
Rp17
sS'misc'
p18
(dp19
S'tid'
p20
I0
sS'idxs'
p21
(dp22
S'units1'
p23
(lp24
I0
asS'units2'
p25
(lp26
I0
asS'batch_size'
p27
(lp28
I0
assS'cmd'
p29
(S'domain_attachment'
p30
S'FMinIter_Domain'
p31
tp32
sS'vals'
p33
(dp34
g23
(lp35
F20.0
asg25
(lp36
F80.0
asg27
(lp37
I0
assS'workdir'
p38
NssS'state'
p39
I2
sg20
I0
sS'exp_key'
p40
NsS'version'
p41
I0
sS'result'
p42
(dp43
S'status'
p44
S'ok'
p45
sS'loss'
p46
F0.0142
ssS'owner'
p47
NsS'spec'
p48
Nsa(dp49
g9
g10
(S'\x07\xe3\n\r\x14"\x01\x026h'
p50
tp51
Rp52
sg14
g10
(S'\x07\xe3\n\r\x10\x13$\x02"\xe0'
p53
tp54
Rp55
sg18
(dp56
g20
I1
sg21
(dp57
g23
(lp58
I1
asg25
(lp59
I1
asg27
(lp60
I1
assg29
(g30
g31
tp61
sg33
(dp62
g23
(lp63
F90.0
asg25
(lp64
F85.0
asg27
(lp65
I0
assg38
Nssg39
I2
sg20
I1
sg40
Nsg41
I0
sg42
(dp66
g44
g45
sg46
F0.0102
ssg47
Nsg48
Nsa(dp67
g9
g10
(S'\x07\xe3\n\r\x16$$\x00\x94p'
p68
tp69
Rp70
sg14
g10
(S'\x07\xe3\n\r\x14"\x01\x02I\xf0'
p71
tp72
Rp73
sg18
(dp74
g20
I2
sg21
(dp75
g23
(lp76
I2
asg25
(lp77
I2
asg27
(lp78
I2
assg29
(g30
g31
tp79
sg33
(dp80
g23
(lp81
F75.0
asg25
(lp82
F10.0
asg27
(lp83
I0
assg38
Nssg39
I2
sg20
I2
sg40
Nsg41
I0
sg42
(dp84
g44
g45
sg46
F0.0098
ssg47
Nsg48
Nsa(dp85
g9
g10
(S'\x07\xe3\n\x0e\x00\x1c\x17\x07\xd7\xd0'
p86
tp87
Rp88
sg14
g10
(S'\x07\xe3\n\r\x16$$\x00\xab\xe0'
p89
tp90
Rp91
sg18
(dp92
g20
I3
sg21
(dp93
g23
(lp94
I3
asg25
(lp95
I3
asg27
(lp96
I3
assg29
(g30
g31
tp97
sg33
(dp98
g23
(lp99
F50.0
asg25
(lp100
F60.0
asg27
(lp101
I0
assg38
Nssg39
I2
sg20
I3
sg40
Nsg41
I0
sg42
(dp102
g44
g45
sg46
F0.0075
ssg47
Nsg48
Nsa(dp103
g9
g10
(S'\x07\xe3\n\x0e\x01%\x00\x0b^('
p104
tp105
Rp106
sg14
g10
(S'\x07\xe3\n\x0e\x00\x1c\x17\x07\xe7p'
p107
tp108
Rp109
sg18
(dp110
g20
I4
sg21
(dp111
g23
(lp112
I4
asg25
(lp113
I4
asg27
(lp114
I4
assg29
(g30
g31
tp115
sg33
(dp116
g23
(lp117
F20.0
asg25
(lp118
F100.0
asg27
(lp119
I0
assg38
Nssg39
I2
sg20
I4
sg40
Nsg41
I0
sg42
(dp120
g44
g45
sg46
F0.014
ssg47
Nsg48
Nsa(dp121
S'refresh_time'
p122
g10
(S'\x07\xe3\n\x0e\x03*\x18\r\xda\xe0'
p123
tp124
Rp125
sS'book_time'
p126
g10
(S'\x07\xe3\n\x0e\x01%\x00\x0b\xa4x'
p127
tp128
Rp129
sS'misc'
p130
(dp131
S'tid'
p132
I5
sS'idxs'
p133
(dp134
S'units1'
p135
(lp136
I5
asS'units2'
p137
(lp138
I5
asS'batch_size'
p139
(lp140
I5
assS'cmd'
p141
(S'domain_attachment'
p142
S'FMinIter_Domain'
p143
tp144
sS'vals'
p145
(dp146
g135
(lp147
F65.0
asg137
(lp148
F30.0
asg139
(lp149
I0
assS'workdir'
p150
NssS'exp_key'
p151
NsS'owner'
p152
NsS'state'
p153
I2
sS'version'
p154
I0
sS'result'
p155
(dp156
S'status'
p157
S'ok'
p158
sS'loss'
p159
F0.0093
ssg132
I5
sS'spec'
p160
Nsa(dp161
S'refresh_time'
p162
g10
(S'\x07\xe3\n\x0e\x04\x16\x0f\x06\xbe\x90'
p163
tp164
Rp165
sS'book_time'
p166
g10
(S'\x07\xe3\n\x0e\x03*\x18\x0e%\x18'
p167
tp168
Rp169
sS'misc'
p170
(dp171
S'tid'
p172
I6
sS'idxs'
p173
(dp174
S'units1'
p175
(lp176
I6
asS'units2'
p177
(lp178
I6
asS'batch_size'
p179
(lp180
I6
assS'cmd'
p181
(S'domain_attachment'
p182
S'FMinIter_Domain'
p183
tp184
sS'vals'
p185
(dp186
g175
(lp187
F10.0
asg177
(lp188
F40.0
asg179
(lp189
I0
assS'workdir'
p190
NssS'state'
p191
I2
sg172
I6
sS'exp_key'
p192
NsS'version'
p193
I0
sS'result'
p194
(dp195
S'status'
p196
S'ok'
p197
sS'loss'
p198
F0.0236
ssS'owner'
p199
NsS'spec'
p200
Nsa(dp201
S'refresh_time'
p202
g10
(S'\x07\xe3\n\x0e\x06\n\x0c\x04\xc2\xc0'
p203
tp204
Rp205
sS'book_time'
p206
g10
(S'\x07\xe3\n\x0e\x04\x16\x0f\x07\x00\xf8'
p207
tp208
Rp209
sS'misc'
p210
(dp211
S'tid'
p212
I7
sS'idxs'
p213
(dp214
S'units1'
p215
(lp216
I7
asS'units2'
p217
(lp218
I7
asS'batch_size'
p219
(lp220
I7
assS'cmd'
p221
(S'domain_attachment'
p222
S'FMinIter_Domain'
p223
tp224
sS'vals'
p225
(dp226
g215
(lp227
F70.0
asg217
(lp228
F25.0
asg219
(lp229
I0
assS'workdir'
p230
NssS'exp_key'
p231
NsS'owner'
p232
NsS'state'
p233
I2
sS'version'
p234
I0
sS'result'
p235
(dp236
S'status'
p237
S'ok'
p238
sS'loss'
p239
F0.0076
ssg212
I7
sS'spec'
p240
Nsa(dp241
S'refresh_time'
p242
g10
(S'\x07\xe3\n\x0e\x0628\no\xe0'
p243
tp244
Rp245
sS'book_time'
p246
g10
(S'\x07\xe3\n\x0e\x06\n\x0c\x05\x0c\xf8'
p247
tp248
Rp249
sS'misc'
p250
(dp251
S'tid'
p252
I8
sS'idxs'
p253
(dp254
S'units1'
p255
(lp256
I8
asS'units2'
p257
(lp258
I8
asS'batch_size'
p259
(lp260
I8
assS'cmd'
p261
(S'domain_attachment'
p262
S'FMinIter_Domain'
p263
tp264
sS'vals'
p265
(dp266
g255
(lp267
F45.0
asg257
(lp268
F40.0
asg259
(lp269
I0
assS'workdir'
p270
NssS'state'
p271
I2
sg252
I8
sS'exp_key'
p272
NsS'version'
p273
I0
sS'result'
p274
(dp275
S'status'
p276
S'ok'
p277
sS'loss'
p278
F0.0121
ssS'owner'
p279
NsS'spec'
p280
Nsa(dp281
S'refresh_time'
p282
g10
(S'\x07\xe3\n\x0e\x07##\x07\x8d\x98'
p283
tp284
Rp285
sS'book_time'
p286
g10
(S'\x07\xe3\n\x0e\x0628\n\xa2\xa8'
p287
tp288
Rp289
sS'misc'
p290
(dp291
S'tid'
p292
I9
sS'idxs'
p293
(dp294
S'units1'
p295
(lp296
I9
asS'units2'
p297
(lp298
I9
asS'batch_size'
p299
(lp300
I9
assS'cmd'
p301
(S'domain_attachment'
p302
S'FMinIter_Domain'
p303
tp304
sS'vals'
p305
(dp306
g295
(lp307
F60.0
asg297
(lp308
F30.0
asg299
(lp309
I0
assS'workdir'
p310
NssS'exp_key'
p311
NsS'owner'
p312
NsS'state'
p313
I2
sS'version'
p314
I0
sS'result'
p315
(dp316
S'status'
p317
S'ok'
p318
sS'loss'
p319
F0.0082
ssg292
I9
sS'spec'
p320
Nsa(dp321
S'refresh_time'
p322
g10
(S'\x07\xe3\n\x0e\t\x01\x05\n\x12 '
p323
tp324
Rp325
sS'book_time'
p326
g10
(S'\x07\xe3\n\x0e\x07##\x07\xc4H'
p327
tp328
Rp329
sS'misc'
p330
(dp331
S'tid'
p332
I10
sS'idxs'
p333
(dp334
S'units1'
p335
(lp336
I10
asS'units2'
p337
(lp338
I10
asS'batch_size'
p339
(lp340
I10
assS'cmd'
p341
(S'domain_attachment'
p342
S'FMinIter_Domain'
p343
tp344
sS'vals'
p345
(dp346
g335
(lp347
F95.0
asg337
(lp348
F80.0
asg339
(lp349
I0
assS'workdir'
p350
NssS'state'
p351
I2
sg332
I10
sS'exp_key'
p352
NsS'version'
p353
I0
sS'result'
p354
(dp355
S'status'
p356
S'ok'
p357
sS'loss'
p358
F0.0073
ssS'owner'
p359
NsS'spec'
p360
Nsa(dp361
S'refresh_time'
p362
g10
(S'\x07\xe3\n\x0e\t04\x00\xb7\x98'
p363
tp364
Rp365
sS'book_time'
p366
g10
(S'\x07\xe3\n\x0e\t\x01\x05\nL\xb8'
p367
tp368
Rp369
sS'misc'
p370
(dp371
S'tid'
p372
I11
sS'idxs'
p373
(dp374
S'units1'
p375
(lp376
I11
asS'units2'
p377
(lp378
I11
asS'batch_size'
p379
(lp380
I11
assS'cmd'
p381
(S'domain_attachment'
p382
S'FMinIter_Domain'
p383
tp384
sS'vals'
p385
(dp386
g375
(lp387
F95.0
asg377
(lp388
F0.0
asg379
(lp389
I0
assS'workdir'
p390
NssS'exp_key'
p391
NsS'owner'
p392
NsS'state'
p393
I2
sS'version'
p394
I0
sS'result'
p395
(dp396
S'status'
p397
S'ok'
p398
sS'loss'
p399
F0.0085
ssg372
I11
sS'spec'
p400
Nsa(dp401
S'refresh_time'
p402
g10
(S'\x07\xe3\n\x0e\n\x12\x16\r\xa8\x18'
p403
tp404
Rp405
sS'book_time'
p406
g10
(S'\x07\xe3\n\x0e\t04\x00\xf20'
p407
tp408
Rp409
sS'misc'
p410
(dp411
S'tid'
p412
I12
sS'idxs'
p413
(dp414
S'units1'
p415
(lp416
I12
asS'units2'
p417
(lp418
I12
asS'batch_size'
p419
(lp420
I12
assS'cmd'
p421
(S'domain_attachment'
p422
S'FMinIter_Domain'
p423
tp424
sS'vals'
p425
(dp426
g415
(lp427
F30.0
asg417
(lp428
F35.0
asg419
(lp429
I0
assS'workdir'
p430
NssS'state'
p431
I2
sg412
I12
sS'exp_key'
p432
NsS'version'
p433
I0
sS'result'
p434
(dp435
S'status'
p436
S'ok'
p437
sS'loss'
p438
F0.0096
ssS'owner'
p439
NsS'spec'
p440
Nsa(dp441
S'refresh_time'
p442
g10
(S'\x07\xe3\n\x0e\x0b\x06\x02\x04:\x08'
p443
tp444
Rp445
sS'book_time'
p446
g10
(S'\x07\xe3\n\x0e\n\x12\x16\r\xe2\xb0'
p447
tp448
Rp449
sS'misc'
p450
(dp451
S'tid'
p452
I13
sS'idxs'
p453
(dp454
S'units1'
p455
(lp456
I13
asS'units2'
p457
(lp458
I13
asS'batch_size'
p459
(lp460
I13
assS'cmd'
p461
(S'domain_attachment'
p462
S'FMinIter_Domain'
p463
tp464
sS'vals'
p465
(dp466
g455
(lp467
F65.0
asg457
(lp468
F65.0
asg459
(lp469
I0
assS'workdir'
p470
NssS'exp_key'
p471
NsS'owner'
p472
NsS'state'
p473
I2
sS'version'
p474
I0
sS'result'
p475
(dp476
S'status'
p477
S'ok'
p478
sS'loss'
p479
F0.0091
ssg452
I13
sS'spec'
p480
Nsa(dp481
S'refresh_time'
p482
g10
(S'\x07\xe3\n\x18\x0c\x11\x06\tq\xf8'
p483
tp484
Rp485
sS'book_time'
p486
g10
(S'\x07\xe3\n\x18\x0c\x05\x1a\r\xa40'
p487
tp488
Rp489
sS'misc'
p490
(dp491
S'tid'
p492
I14
sS'idxs'
p493
(dp494
S'units1'
p495
(lp496
I14
asS'units2'
p497
(lp498
I14
asS'batch_size'
p499
(lp500
I14
assS'cmd'
p501
(S'domain_attachment'
p502
S'FMinIter_Domain'
p503
tp504
sS'vals'
p505
(dp506
g495
(lp507
F20.0
asg497
(lp508
F45.0
asg499
(lp509
I0
assS'workdir'
p510
NssS'state'
p511
I2
sg492
I14
sS'exp_key'
p512
NsS'version'
p513
I0
sS'result'
p514
(dp515
S'status'
p516
S'ok'
p517
sS'loss'
p518
F0.0145
ssS'owner'
p519
NsS'spec'
p520
Nsa(dp521
S'refresh_time'
p522
g10
(S'\x07\xe3\n\x18\x0c\x1c6\x07;\x90'
p523
tp524
Rp525
sS'book_time'
p526
g10
(S'\x07\xe3\n\x18\x0c\x11\x06\t\x89h'
p527
tp528
Rp529
sS'misc'
p530
(dp531
S'tid'
p532
I15
sS'idxs'
p533
(dp534
S'units1'
p535
(lp536
I15
asS'units2'
p537
(lp538
I15
asS'batch_size'
p539
(lp540
I15
assS'cmd'
p541
(S'domain_attachment'
p542
S'FMinIter_Domain'
p543
tp544
sS'vals'
p545
(dp546
g535
(lp547
F45.0
asg537
(lp548
F45.0
asg539
(lp549
I0
assS'workdir'
p550
NssS'exp_key'
p551
NsS'owner'
p552
NsS'state'
p553
I2
sS'version'
p554
I0
sS'result'
p555
(dp556
S'status'
p557
S'ok'
p558
sS'loss'
p559
F0.0121
ssg532
I15
sS'spec'
p560
Nsa(dp561
S'refresh_time'
p562
g10
(S'\x07\xe3\n\x18\x0c)\x0b\tn\x10'
p563
tp564
Rp565
sS'book_time'
p566
g10
(S'\x07\xe3\n\x18\x0c\x1c6\x07S\x00'
p567
tp568
Rp569
sS'misc'
p570
(dp571
S'tid'
p572
I16
sS'idxs'
p573
(dp574
S'units1'
p575
(lp576
I16
asS'units2'
p577
(lp578
I16
asS'batch_size'
p579
(lp580
I16
assS'cmd'
p581
(S'domain_attachment'
p582
S'FMinIter_Domain'
p583
tp584
sS'vals'
p585
(dp586
g575
(lp587
F70.0
asg577
(lp588
F60.0
asg579
(lp589
I0
assS'workdir'
p590
NssS'state'
p591
I2
sg572
I16
sS'exp_key'
p592
NsS'version'
p593
I0
sS'result'
p594
(dp595
S'status'
p596
S'ok'
p597
sS'loss'
p598
F0.0072
ssS'owner'
p599
NsS'spec'
p600
Nsa(dp601
S'refresh_time'
p602
g10
(S'\x07\xe3\n\x18\x0c5!\x0c\xf0\x80'
p603
tp604
Rp605
sS'book_time'
p606
g10
(S'\x07\xe3\n\x18\x0c)\x0b\t\x89h'
p607
tp608
Rp609
sS'misc'
p610
(dp611
S'tid'
p612
I17
sS'idxs'
p613
(dp614
S'units1'
p615
(lp616
I17
asS'units2'
p617
(lp618
I17
asS'batch_size'
p619
(lp620
I17
assS'cmd'
p621
(S'domain_attachment'
p622
S'FMinIter_Domain'
p623
tp624
sS'vals'
p625
(dp626
g615
(lp627
F100.0
asg617
(lp628
F20.0
asg619
(lp629
I0
assS'workdir'
p630
NssS'exp_key'
p631
NsS'owner'
p632
NsS'state'
p633
I2
sS'version'
p634
I0
sS'result'
p635
(dp636
S'status'
p637
S'ok'
p638
sS'loss'
p639
F0.0076
ssg612
I17
sS'spec'
p640
Nsa(dp641
S'refresh_time'
p642
g10
(S'\x07\xe3\n\x18\r\x07\x1c\n\x16\x08'
p643
tp644
Rp645
sS'book_time'
p646
g10
(S'\x07\xe3\n\x18\x0c5!\r\x0b\xd8'
p647
tp648
Rp649
sS'misc'
p650
(dp651
S'tid'
p652
I18
sS'idxs'
p653
(dp654
S'units1'
p655
(lp656
I18
asS'units2'
p657
(lp658
I18
asS'batch_size'
p659
(lp660
I18
assS'cmd'
p661
(S'domain_attachment'
p662
S'FMinIter_Domain'
p663
tp664
sS'vals'
p665
(dp666
g655
(lp667
F85.0
asg657
(lp668
F60.0
asg659
(lp669
I0
assS'workdir'
p670
NssS'state'
p671
I2
sg652
I18
sS'exp_key'
p672
NsS'version'
p673
I0
sS'result'
p674
(dp675
S'status'
p676
S'ok'
p677
sS'loss'
p678
F0.0091
ssS'owner'
p679
NsS'spec'
p680
Nsa(dp681
S'refresh_time'
p682
g10
(S'\x07\xe3\n\x18\r\x13\x1a\x03\xe8\x00'
p683
tp684
Rp685
sS'book_time'
p686
g10
(S'\x07\xe3\n\x18\r\x07\x1c\n1`'
p687
tp688
Rp689
sS'misc'
p690
(dp691
S'tid'
p692
I19
sS'idxs'
p693
(dp694
S'units1'
p695
(lp696
I19
asS'units2'
p697
(lp698
I19
asS'batch_size'
p699
(lp700
I19
assS'cmd'
p701
(S'domain_attachment'
p702
S'FMinIter_Domain'
p703
tp704
sS'vals'
p705
(dp706
g695
(lp707
F55.0
asg697
(lp708
F60.0
asg699
(lp709
I0
assS'workdir'
p710
NssS'exp_key'
p711
NsS'owner'
p712
NsS'state'
p713
I2
sS'version'
p714
I0
sS'result'
p715
(dp716
S'status'
p717
S'ok'
p718
sS'loss'
p719
F0.0098
ssg692
I19
sS'spec'
p720
Nsa(dp721
S'refresh_time'
p722
g10
(S'\x07\xe3\n\x18\r\x1d7\x05\x01@'
p723
tp724
Rp725
sS'book_time'
p726
g10
(S'\x07\xe3\n\x18\r\x13\x1a\x04\x03X'
p727
tp728
Rp729
sS'misc'
p730
(dp731
S'tid'
p732
I20
sS'idxs'
p733
(dp734
S'units1'
p735
(lp736
I20
asS'units2'
p737
(lp738
I20
asS'batch_size'
p739
(lp740
I20
assS'cmd'
p741
(S'domain_attachment'
p742
S'FMinIter_Domain'
p743
tp744
sS'vals'
p745
(dp746
g735
(lp747
F20.0
asg737
(lp748
F85.0
asg739
(lp749
I0
assS'workdir'
p750
NssS'state'
p751
I2
sg732
I20
sS'exp_key'
p752
NsS'version'
p753
I0
sS'result'
p754
(dp755
S'status'
p756
S'ok'
p757
sS'loss'
p758
F0.0138
ssS'owner'
p759
NsS'spec'
p760
Nsa(dp761
S'refresh_time'
p762
g10
(S'\x07\xe3\n\x18\r(\x17\x08\xd9\xa0'
p763
tp764
Rp765
sS'book_time'
p766
g10
(S'\x07\xe3\n\x18\r\x1d7\x05 \x80'
p767
tp768
Rp769
sS'misc'
p770
(dp771
S'tid'
p772
I21
sS'idxs'
p773
(dp774
S'units1'
p775
(lp776
I21
asS'units2'
p777
(lp778
I21
asS'batch_size'
p779
(lp780
I21
assS'cmd'
p781
(S'domain_attachment'
p782
S'FMinIter_Domain'
p783
tp784
sS'vals'
p785
(dp786
g775
(lp787
F70.0
asg777
(lp788
F5.0
asg779
(lp789
I0
assS'workdir'
p790
NssS'exp_key'
p791
NsS'owner'
p792
NsS'state'
p793
I2
sS'version'
p794
I0
sS'result'
p795
(dp796
S'status'
p797
S'ok'
p798
sS'loss'
p799
F0.0077
ssg772
I21
sS'spec'
p800
Nsa(dp801
S'refresh_time'
p802
g10
(S'\x07\xe3\n\x18\r3\x14\r} '
p803
tp804
Rp805
sS'book_time'
p806
g10
(S'\x07\xe3\n\x18\r(\x17\x08\xf8\xe0'
p807
tp808
Rp809
sS'misc'
p810
(dp811
S'tid'
p812
I22
sS'idxs'
p813
(dp814
S'units1'
p815
(lp816
I22
asS'units2'
p817
(lp818
I22
asS'batch_size'
p819
(lp820
I22
assS'cmd'
p821
(S'domain_attachment'
p822
S'FMinIter_Domain'
p823
tp824
sS'vals'
p825
(dp826
g815
(lp827
F80.0
asg817
(lp828
F10.0
asg819
(lp829
I0
assS'workdir'
p830
NssS'state'
p831
I2
sg812
I22
sS'exp_key'
p832
NsS'version'
p833
I0
sS'result'
p834
(dp835
S'status'
p836
S'ok'
p837
sS'loss'
p838
F0.0095
ssS'owner'
p839
NsS'spec'
p840
Nsa(dp841
S'refresh_time'
p842
g10
(S'\x07\xe3\n\x18\x0e\x026\nT\x88'
p843
tp844
Rp845
sS'book_time'
p846
g10
(S'\x07\xe3\n\x18\r3\x14\r\x9c`'
p847
tp848
Rp849
sS'misc'
p850
(dp851
S'tid'
p852
I23
sS'idxs'
p853
(dp854
S'units1'
p855
(lp856
I23
asS'units2'
p857
(lp858
I23
asS'batch_size'
p859
(lp860
I23
assS'cmd'
p861
(S'domain_attachment'
p862
S'FMinIter_Domain'
p863
tp864
sS'vals'
p865
(dp866
g855
(lp867
F30.0
asg857
(lp868
F70.0
asg859
(lp869
I0
assS'workdir'
p870
NssS'exp_key'
p871
NsS'owner'
p872
NsS'state'
p873
I2
sS'version'
p874
I0
sS'result'
p875
(dp876
S'status'
p877
S'ok'
p878
sS'loss'
p879
F0.0093
ssg852
I23
sS'spec'
p880
Nsa(dp881
S'refresh_time'
p882
g10
(S'\x07\xe3\n\x18\x0e\x11\x04\x0e\xe8h'
p883
tp884
Rp885
sS'book_time'
p886
g10
(S'\x07\xe3\n\x18\x0e\x026\ns\xc8'
p887
tp888
Rp889
sS'misc'
p890
(dp891
S'tid'
p892
I24
sS'idxs'
p893
(dp894
S'units1'
p895
(lp896
I24
asS'units2'
p897
(lp898
I24
asS'batch_size'
p899
(lp900
I24
assS'cmd'
p901
(S'domain_attachment'
p902
S'FMinIter_Domain'
p903
tp904
sS'vals'
p905
(dp906
g895
(lp907
F100.0
asg897
(lp908
F35.0
asg899
(lp909
I0
assS'workdir'
p910
NssS'state'
p911
I2
sg892
I24
sS'exp_key'
p912
NsS'version'
p913
I0
sS'result'
p914
(dp915
S'status'
p916
S'ok'
p917
sS'loss'
p918
F0.0076
ssS'owner'
p919
NsS'spec'
p920
Nsa(dp921
S'refresh_time'
p922
g10
(S'\x07\xe3\n\x18\x0e\x1a.\x02eH'
p923
tp924
Rp925
sS'book_time'
p926
g10
(S'\x07\xe3\n\x18\x0e\x11\x04\x0f\x0b\x90'
p927
tp928
Rp929
sS'misc'
p930
(dp931
S'tid'
p932
I25
sS'idxs'
p933
(dp934
S'units1'
p935
(lp936
I25
asS'units2'
p937
(lp938
I25
asS'batch_size'
p939
(lp940
I25
assS'cmd'
p941
(S'domain_attachment'
p942
S'FMinIter_Domain'
p943
tp944
sS'vals'
p945
(dp946
g935
(lp947
F5.0
asg937
(lp948
F90.0
asg939
(lp949
I0
assS'workdir'
p950
NssS'exp_key'
p951
NsS'owner'
p952
NsS'state'
p953
I2
sS'version'
p954
I0
sS'result'
p955
(dp956
S'status'
p957
S'ok'
p958
sS'loss'
p959
F0.0384
ssg932
I25
sS'spec'
p960
Nsa(dp961
S'refresh_time'
p962
g10
(S'\x07\xe3\n\x18\x0e$1\x00\x0b\xb8'
p963
tp964
Rp965
sS'book_time'
p966
g10
(S'\x07\xe3\n\x18\x0e\x1a.\x02\x88p'
p967
tp968
Rp969
sS'misc'
p970
(dp971
S'tid'
p972
I26
sS'idxs'
p973
(dp974
S'units1'
p975
(lp976
I26
asS'units2'
p977
(lp978
I26
asS'batch_size'
p979
(lp980
I26
assS'cmd'
p981
(S'domain_attachment'
p982
S'FMinIter_Domain'
p983
tp984
sS'vals'
p985
(dp986
g975
(lp987
F10.0
asg977
(lp988
F25.0
asg979
(lp989
I0
assS'workdir'
p990
NssS'state'
p991
I2
sg972
I26
sS'exp_key'
p992
NsS'version'
p993
I0
sS'result'
p994
(dp995
S'status'
p996
S'ok'
p997
sS'loss'
p998
F0.0235
ssS'owner'
p999
NsS'spec'
p1000
Nsa(dp1001
S'refresh_time'
p1002
g10
(S'\x07\xe3\n\x18\x0e/\t\x0428'
p1003
tp1004
Rp1005
sS'book_time'
p1006
g10
(S'\x07\xe3\n\x18\x0e$1\x00.\xe0'
p1007
tp1008
Rp1009
sS'misc'
p1010
(dp1011
S'tid'
p1012
I27
sS'idxs'
p1013
(dp1014
S'units1'
p1015
(lp1016
I27
asS'units2'
p1017
(lp1018
I27
asS'batch_size'
p1019
(lp1020
I27
assS'cmd'
p1021
(S'domain_attachment'
p1022
S'FMinIter_Domain'
p1023
tp1024
sS'vals'
p1025
(dp1026
g1015
(lp1027
F45.0
asg1017
(lp1028
F20.0
asg1019
(lp1029
I0
assS'workdir'
p1030
NssS'exp_key'
p1031
NsS'owner'
p1032
NsS'state'
p1033
I2
sS'version'
p1034
I0
sS'result'
p1035
(dp1036
S'status'
p1037
S'ok'
p1038
sS'loss'
p1039
F0.0116
ssg1012
I27
sS'spec'
p1040
Nsa(dp1041
S'refresh_time'
p1042
g10
(S'\x07\xe3\n\x18\x0e9\x1c\x02\xca\xd8'
p1043
tp1044
Rp1045
sS'book_time'
p1046
g10
(S'\x07\xe3\n\x18\x0e/\t\x04U`'
p1047
tp1048
Rp1049
sS'misc'
p1050
(dp1051
S'tid'
p1052
I28
sS'idxs'
p1053
(dp1054
S'units1'
p1055
(lp1056
I28
asS'units2'
p1057
(lp1058
I28
asS'batch_size'
p1059
(lp1060
I28
assS'cmd'
p1061
(S'domain_attachment'
p1062
S'FMinIter_Domain'
p1063
tp1064
sS'vals'
p1065
(dp1066
g1055
(lp1067
F40.0
asg1057
(lp1068
F35.0
asg1059
(lp1069
I0
assS'workdir'
p1070
NssS'state'
p1071
I2
sg1052
I28
sS'exp_key'
p1072
NsS'version'
p1073
I0
sS'result'
p1074
(dp1075
S'status'
p1076
S'ok'
p1077
sS'loss'
p1078
F0.009
ssS'owner'
p1079
NsS'spec'
p1080
Nsa(dp1081
S'refresh_time'
p1082
g10
(S'\x07\xe3\n\x18\x0f\x07\x11\x04\x1e\xb0'
p1083
tp1084
Rp1085
sS'book_time'
p1086
g10
(S'\x07\xe3\n\x18\x0e9\x1c\x02\xee\x00'
p1087
tp1088
Rp1089
sS'misc'
p1090
(dp1091
S'tid'
p1092
I29
sS'idxs'
p1093
(dp1094
S'units1'
p1095
(lp1096
I29
asS'units2'
p1097
(lp1098
I29
asS'batch_size'
p1099
(lp1100
I29
assS'cmd'
p1101
(S'domain_attachment'
p1102
S'FMinIter_Domain'
p1103
tp1104
sS'vals'
p1105
(dp1106
g1095
(lp1107
F50.0
asg1097
(lp1108
F5.0
asg1099
(lp1109
I0
assS'workdir'
p1110
NssS'exp_key'
p1111
NsS'owner'
p1112
NsS'state'
p1113
I2
sS'version'
p1114
I0
sS'result'
p1115
(dp1116
S'status'
p1117
S'ok'
p1118
sS'loss'
p1119
F0.0073
ssg1092
I29
sS'spec'
p1120
Nsa(dp1121
S'refresh_time'
p1122
g10
(S'\x07\xe3\n\x18\x0f\x113\n90'
p1123
tp1124
Rp1125
sS'book_time'
p1126
g10
(S'\x07\xe3\n\x18\x0f\x07\x11\x04A\xd8'
p1127
tp1128
Rp1129
sS'misc'
p1130
(dp1131
S'tid'
p1132
I30
sS'idxs'
p1133
(dp1134
S'units1'
p1135
(lp1136
I30
asS'units2'
p1137
(lp1138
I30
asS'batch_size'
p1139
(lp1140
I30
assS'cmd'
p1141
(S'domain_attachment'
p1142
S'FMinIter_Domain'
p1143
tp1144
sS'vals'
p1145
(dp1146
g1135
(lp1147
F65.0
asg1137
(lp1148
F50.0
asg1139
(lp1149
I0
assS'workdir'
p1150
NssS'state'
p1151
I2
sg1132
I30
sS'exp_key'
p1152
NsS'version'
p1153
I0
sS'result'
p1154
(dp1155
S'status'
p1156
S'ok'
p1157
sS'loss'
p1158
F0.009
ssS'owner'
p1159
NsS'spec'
p1160
Nsa(dp1161
S'refresh_time'
p1162
g10
(S'\x07\xe3\n\x18\x0f\x1d/\x0bZ@'
p1163
tp1164
Rp1165
sS'book_time'
p1166
g10
(S'\x07\xe3\n\x18\x0f\x113\n\\X'
p1167
tp1168
Rp1169
sS'misc'
p1170
(dp1171
S'tid'
p1172
I31
sS'idxs'
p1173
(dp1174
S'units1'
p1175
(lp1176
I31
asS'units2'
p1177
(lp1178
I31
asS'batch_size'
p1179
(lp1180
I31
assS'cmd'
p1181
(S'domain_attachment'
p1182
S'FMinIter_Domain'
p1183
tp1184
sS'vals'
p1185
(dp1186
g1175
(lp1187
F95.0
asg1177
(lp1188
F25.0
asg1179
(lp1189
I0
assS'workdir'
p1190
NssS'exp_key'
p1191
NsS'owner'
p1192
NsS'state'
p1193
I2
sS'version'
p1194
I0
sS'result'
p1195
(dp1196
S'status'
p1197
S'ok'
p1198
sS'loss'
p1199
F0.0078
ssg1172
I31
sS'spec'
p1200
Nsa(dp1201
S'refresh_time'
p1202
g10
(S'\x07\xe3\n\x18\x0f(\x00\t\xcf\xb8'
p1203
tp1204
Rp1205
sS'book_time'
p1206
g10
(S'\x07\xe3\n\x18\x0f\x1d/\x0b}h'
p1207
tp1208
Rp1209
sS'misc'
p1210
(dp1211
S'tid'
p1212
I32
sS'idxs'
p1213
(dp1214
S'units1'
p1215
(lp1216
I32
asS'units2'
p1217
(lp1218
I32
asS'batch_size'
p1219
(lp1220
I32
assS'cmd'
p1221
(S'domain_attachment'
p1222
S'FMinIter_Domain'
p1223
tp1224
sS'vals'
p1225
(dp1226
g1215
(lp1227
F10.0
asg1217
(lp1228
F90.0
asg1219
(lp1229
I0
assS'workdir'
p1230
NssS'state'
p1231
I2
sg1212
I32
sS'exp_key'
p1232
NsS'version'
p1233
I0
sS'result'
p1234
(dp1235
S'status'
p1236
S'ok'
p1237
sS'loss'
p1238
F0.0236
ssS'owner'
p1239
NsS'spec'
p1240
Nsa(dp1241
S'refresh_time'
p1242
g10
(S'\x07\xe3\n\x18\x0f2\x0e\x04x\x88'
p1243
tp1244
Rp1245
sS'book_time'
p1246
g10
(S'\x07\xe3\n\x18\x0f(\x00\t\xf6\xc8'
p1247
tp1248
Rp1249
sS'misc'
p1250
(dp1251
S'tid'
p1252
I33
sS'idxs'
p1253
(dp1254
S'units1'
p1255
(lp1256
I33
asS'units2'
p1257
(lp1258
I33
asS'batch_size'
p1259
(lp1260
I33
assS'cmd'
p1261
(S'domain_attachment'
p1262
S'FMinIter_Domain'
p1263
tp1264
sS'vals'
p1265
(dp1266
g1255
(lp1267
F50.0
asg1257
(lp1268
F30.0
asg1259
(lp1269
I0
assS'workdir'
p1270
NssS'exp_key'
p1271
NsS'owner'
p1272
NsS'state'
p1273
I2
sS'version'
p1274
I0
sS'result'
p1275
(dp1276
S'status'
p1277
S'ok'
p1278
sS'loss'
p1279
F0.0075
ssg1252
I33
sS'spec'
p1280
Nsa(dp1281
S'refresh_time'
p1282
g10
(S'\x07\xe3\n\x18\x10\x00\x18\x08\x16P'
p1283
tp1284
Rp1285
sS'book_time'
p1286
g10
(S'\x07\xe3\n\x18\x0f2\x0e\x04\xa3\x80'
p1287
tp1288
Rp1289
sS'misc'
p1290
(dp1291
S'tid'
p1292
I34
sS'idxs'
p1293
(dp1294
S'units1'
p1295
(lp1296
I34
asS'units2'
p1297
(lp1298
I34
asS'batch_size'
p1299
(lp1300
I34
assS'cmd'
p1301
(S'domain_attachment'
p1302
S'FMinIter_Domain'
p1303
tp1304
sS'vals'
p1305
(dp1306
g1295
(lp1307
F40.0
asg1297
(lp1308
F5.0
asg1299
(lp1309
I0
assS'workdir'
p1310
NssS'state'
p1311
I2
sg1292
I34
sS'exp_key'
p1312
NsS'version'
p1313
I0
sS'result'
p1314
(dp1315
S'status'
p1316
S'ok'
p1317
sS'loss'
p1318
F0.009
ssS'owner'
p1319
NsS'spec'
p1320
Nsa(dp1321
S'refresh_time'
p1322
g10
(S'\x07\xe3\n\x18\x10\x0c\x18\x0e\x92x'
p1323
tp1324
Rp1325
sS'book_time'
p1326
g10
(S'\x07\xe3\n\x18\x10\x00\x18\x08AH'
p1327
tp1328
Rp1329
sS'misc'
p1330
(dp1331
S'tid'
p1332
I35
sS'idxs'
p1333
(dp1334
S'units1'
p1335
(lp1336
I35
asS'units2'
p1337
(lp1338
I35
asS'batch_size'
p1339
(lp1340
I35
assS'cmd'
p1341
(S'domain_attachment'
p1342
S'FMinIter_Domain'
p1343
tp1344
sS'vals'
p1345
(dp1346
g1335
(lp1347
F65.0
asg1337
(lp1348
F70.0
asg1339
(lp1349
I0
assS'workdir'
p1350
NssS'exp_key'
p1351
NsS'owner'
p1352
NsS'state'
p1353
I2
sS'version'
p1354
I0
sS'result'
p1355
(dp1356
S'status'
p1357
S'ok'
p1358
sS'loss'
p1359
F0.009
ssg1332
I35
sS'spec'
p1360
Nsa(dp1361
S'refresh_time'
p1362
g10
(S'\x07\xe3\n\x18\x10\x16 \x05\xd40'
p1363
tp1364
Rp1365
sS'book_time'
p1366
g10
(S'\x07\xe3\n\x18\x10\x0c\x18\x0e\xbdp'
p1367
tp1368
Rp1369
sS'misc'
p1370
(dp1371
S'tid'
p1372
I36
sS'idxs'
p1373
(dp1374
S'units1'
p1375
(lp1376
I36
asS'units2'
p1377
(lp1378
I36
asS'batch_size'
p1379
(lp1380
I36
assS'cmd'
p1381
(S'domain_attachment'
p1382
S'FMinIter_Domain'
p1383
tp1384
sS'vals'
p1385
(dp1386
g1375
(lp1387
F25.0
asg1377
(lp1388
F15.0
asg1379
(lp1389
I0
assS'workdir'
p1390
NssS'state'
p1391
I2
sg1372
I36
sS'exp_key'
p1392
NsS'version'
p1393
I0
sS'result'
p1394
(dp1395
S'status'
p1396
S'ok'
p1397
sS'loss'
p1398
F0.0108
ssS'owner'
p1399
NsS'spec'
p1400
Nsa(dp1401
S'refresh_time'
p1402
g10
(S'\x07\xe3\n\x18\x10 9\x0b\xa0\x90'
p1403
tp1404
Rp1405
sS'book_time'
p1406
g10
(S'\x07\xe3\n\x18\x10\x16 \x05\xfb@'
p1407
tp1408
Rp1409
sS'misc'
p1410
(dp1411
S'tid'
p1412
I37
sS'idxs'
p1413
(dp1414
S'units1'
p1415
(lp1416
I37
asS'units2'
p1417
(lp1418
I37
asS'batch_size'
p1419
(lp1420
I37
assS'cmd'
p1421
(S'domain_attachment'
p1422
S'FMinIter_Domain'
p1423
tp1424
sS'vals'
p1425
(dp1426
g1415
(lp1427
F25.0
asg1417
(lp1428
F75.0
asg1419
(lp1429
I0
assS'workdir'
p1430
NssS'exp_key'
p1431
NsS'owner'
p1432
NsS'state'
p1433
I2
sS'version'
p1434
I0
sS'result'
p1435
(dp1436
S'status'
p1437
S'ok'
p1438
sS'loss'
p1439
F0.0111
ssg1412
I37
sS'spec'
p1440
Nsa(dp1441
S'refresh_time'
p1442
g10
(S'\x07\xe3\n\x18\x10- \x0388'
p1443
tp1444
Rp1445
sS'book_time'
p1446
g10
(S'\x07\xe3\n\x18\x10 9\x0b\xcb\x88'
p1447
tp1448
Rp1449
sS'misc'
p1450
(dp1451
S'tid'
p1452
I38
sS'idxs'
p1453
(dp1454
S'units1'
p1455
(lp1456
I38
asS'units2'
p1457
(lp1458
I38
asS'batch_size'
p1459
(lp1460
I38
assS'cmd'
p1461
(S'domain_attachment'
p1462
S'FMinIter_Domain'
p1463
tp1464
sS'vals'
p1465
(dp1466
g1455
(lp1467
F70.0
asg1457
(lp1468
F80.0
asg1459
(lp1469
I0
assS'workdir'
p1470
NssS'state'
p1471
I2
sg1452
I38
sS'exp_key'
p1472
NsS'version'
p1473
I0
sS'result'
p1474
(dp1475
S'status'
p1476
S'ok'
p1477
sS'loss'
p1478
F0.0074
ssS'owner'
p1479
NsS'spec'
p1480
Nsa(dp1481
S'refresh_time'
p1482
g10
(S'\x07\xe3\n\x18\x107\x1d\x02\xdax'
p1483
tp1484
Rp1485
sS'book_time'
p1486
g10
(S'\x07\xe3\n\x18\x10- \x03c0'
p1487
tp1488
Rp1489
sS'misc'
p1490
(dp1491
S'tid'
p1492
I39
sS'idxs'
p1493
(dp1494
S'units1'
p1495
(lp1496
I39
asS'units2'
p1497
(lp1498
I39
asS'batch_size'
p1499
(lp1500
I39
assS'cmd'
p1501
(S'domain_attachment'
p1502
S'FMinIter_Domain'
p1503
tp1504
sS'vals'
p1505
(dp1506
g1495
(lp1507
F50.0
asg1497
(lp1508
F10.0
asg1499
(lp1509
I0
assS'workdir'
p1510
NssS'exp_key'
p1511
NsS'owner'
p1512
NsS'state'
p1513
I2
sS'version'
p1514
I0
sS'result'
p1515
(dp1516
S'status'
p1517
S'ok'
p1518
sS'loss'
p1519
F0.0072
ssg1492
I39
sS'spec'
p1520
Nsa(dp1521
S'refresh_time'
p1522
g10
(S'\x07\xe3\n\x18\x11\x057\x06h\xa0'
p1523
tp1524
Rp1525
sS'book_time'
p1526
g10
(S'\x07\xe3\n\x18\x107\x1d\x03\x05p'
p1527
tp1528
Rp1529
sS'misc'
p1530
(dp1531
S'tid'
p1532
I40
sS'idxs'
p1533
(dp1534
S'units1'
p1535
(lp1536
I40
asS'units2'
p1537
(lp1538
I40
asS'batch_size'
p1539
(lp1540
I40
assS'cmd'
p1541
(S'domain_attachment'
p1542
S'FMinIter_Domain'
p1543
tp1544
sS'vals'
p1545
(dp1546
g1535
(lp1547
F25.0
asg1537
(lp1548
F95.0
asg1539
(lp1549
I0
assS'workdir'
p1550
NssS'state'
p1551
I2
sg1532
I40
sS'exp_key'
p1552
NsS'version'
p1553
I0
sS'result'
p1554
(dp1555
S'status'
p1556
S'ok'
p1557
sS'loss'
p1558
F0.0112
ssS'owner'
p1559
NsS'spec'
p1560
Nsa(dp1561
S'refresh_time'
p1562
g10
(S'\x07\xe3\n\x18\x11\x15.\x06\xc6`'
p1563
tp1564
Rp1565
sS'book_time'
p1566
g10
(S'\x07\xe3\n\x18\x11\x057\x06\x97\x80'
p1567
tp1568
Rp1569
sS'misc'
p1570
(dp1571
S'tid'
p1572
I41
sS'idxs'
p1573
(dp1574
S'units1'
p1575
(lp1576
I41
asS'units2'
p1577
(lp1578
I41
asS'batch_size'
p1579
(lp1580
I41
assS'cmd'
p1581
(S'domain_attachment'
p1582
S'FMinIter_Domain'
p1583
tp1584
sS'vals'
p1585
(dp1586
g1575
(lp1587
F85.0
asg1577
(lp1588
F95.0
asg1579
(lp1589
I0
assS'workdir'
p1590
NssS'exp_key'
p1591
NsS'owner'
p1592
NsS'state'
p1593
I2
sS'version'
p1594
I0
sS'result'
p1595
(dp1596
S'status'
p1597
S'ok'
p1598
sS'loss'
p1599
F0.0085
ssg1572
I41
sS'spec'
p1600
Nsa(dp1601
S'refresh_time'
p1602
g10
(S'\x07\xe3\n\x18\x11 \t\x03\xbd\x08'
p1603
tp1604
Rp1605
sS'book_time'
p1606
g10
(S'\x07\xe3\n\x18\x11\x15.\x06\xf1X'
p1607
tp1608
Rp1609
sS'misc'
p1610
(dp1611
S'tid'
p1612
I42
sS'idxs'
p1613
(dp1614
S'units1'
p1615
(lp1616
I42
asS'units2'
p1617
(lp1618
I42
asS'batch_size'
p1619
(lp1620
I42
assS'cmd'
p1621
(S'domain_attachment'
p1622
S'FMinIter_Domain'
p1623
tp1624
sS'vals'
p1625
(dp1626
g1615
(lp1627
F50.0
asg1617
(lp1628
F50.0
asg1619
(lp1629
I0
assS'workdir'
p1630
NssS'state'
p1631
I2
sg1612
I42
sS'exp_key'
p1632
NsS'version'
p1633
I0
sS'result'
p1634
(dp1635
S'status'
p1636
S'ok'
p1637
sS'loss'
p1638
F0.0073
ssS'owner'
p1639
NsS'spec'
p1640
Nsa(dp1641
S'refresh_time'
p1642
g10
(S'\x07\xe3\n\x18\x11*4\x0b\x94\xd8'
p1643
tp1644
Rp1645
sS'book_time'
p1646
g10
(S'\x07\xe3\n\x18\x11 \t\x03\xeb\xe8'
p1647
tp1648
Rp1649
sS'misc'
p1650
(dp1651
S'tid'
p1652
I43
sS'idxs'
p1653
(dp1654
S'units1'
p1655
(lp1656
I43
asS'units2'
p1657
(lp1658
I43
asS'batch_size'
p1659
(lp1660
I43
assS'cmd'
p1661
(S'domain_attachment'
p1662
S'FMinIter_Domain'
p1663
tp1664
sS'vals'
p1665
(dp1666
g1655
(lp1667
F10.0
asg1657
(lp1668
F75.0
asg1659
(lp1669
I0
assS'workdir'
p1670
NssS'exp_key'
p1671
NsS'owner'
p1672
NsS'state'
p1673
I2
sS'version'
p1674
I0
sS'result'
p1675
(dp1676
S'status'
p1677
S'ok'
p1678
sS'loss'
p1679
F0.0236
ssg1652
I43
sS'spec'
p1680
Nsa(dp1681
S'refresh_time'
p1682
g10
(S'\x07\xe3\n\x18\x116\x1d\x02m\x18'
p1683
tp1684
Rp1685
sS'book_time'
p1686
g10
(S'\x07\xe3\n\x18\x11*4\x0b\xc3\xb8'
p1687
tp1688
Rp1689
sS'misc'
p1690
(dp1691
S'tid'
p1692
I44
sS'idxs'
p1693
(dp1694
S'units1'
p1695
(lp1696
I44
asS'units2'
p1697
(lp1698
I44
asS'batch_size'
p1699
(lp1700
I44
assS'cmd'
p1701
(S'domain_attachment'
p1702
S'FMinIter_Domain'
p1703
tp1704
sS'vals'
p1705
(dp1706
g1695
(lp1707
F30.0
asg1697
(lp1708
F45.0
asg1699
(lp1709
I0
assS'workdir'
p1710
NssS'state'
p1711
I2
sg1692
I44
sS'exp_key'
p1712
NsS'version'
p1713
I0
sS'result'
p1714
(dp1715
S'status'
p1716
S'ok'
p1717
sS'loss'
p1718
F0.0096
ssS'owner'
p1719
NsS'spec'
p1720
Nsa(dp1721
S'refresh_time'
p1722
g10
(S'\x07\xe3\n\x18\x12\x05/\x04\xabP'
p1723
tp1724
Rp1725
sS'book_time'
p1726
g10
(S'\x07\xe3\n\x18\x116\x1d\x02\x9b\xf8'
p1727
tp1728
Rp1729
sS'misc'
p1730
(dp1731
S'tid'
p1732
I45
sS'idxs'
p1733
(dp1734
S'units1'
p1735
(lp1736
I45
asS'units2'
p1737
(lp1738
I45
asS'batch_size'
p1739
(lp1740
I45
assS'cmd'
p1741
(S'domain_attachment'
p1742
S'FMinIter_Domain'
p1743
tp1744
sS'vals'
p1745
(dp1746
g1735
(lp1747
F50.0
asg1737
(lp1748
F65.0
asg1739
(lp1749
I0
assS'workdir'
p1750
NssS'exp_key'
p1751
NsS'owner'
p1752
NsS'state'
p1753
I2
sS'version'
p1754
I0
sS'result'
p1755
(dp1756
S'status'
p1757
S'ok'
p1758
sS'loss'
p1759
F0.0075
ssg1732
I45
sS'spec'
p1760
Nsa(dp1761
S'refresh_time'
p1762
g10
(S'\x07\xe3\n\x18\x12\x11\x07\x05\x91\xc8'
p1763
tp1764
Rp1765
sS'book_time'
p1766
g10
(S'\x07\xe3\n\x18\x12\x05/\x04\xda0'
p1767
tp1768
Rp1769
sS'misc'
p1770
(dp1771
S'tid'
p1772
I46
sS'idxs'
p1773
(dp1774
S'units1'
p1775
(lp1776
I46
asS'units2'
p1777
(lp1778
I46
asS'batch_size'
p1779
(lp1780
I46
assS'cmd'
p1781
(S'domain_attachment'
p1782
S'FMinIter_Domain'
p1783
tp1784
sS'vals'
p1785
(dp1786
g1775
(lp1787
F25.0
asg1777
(lp1788
F50.0
asg1779
(lp1789
I0
assS'workdir'
p1790
NssS'state'
p1791
I2
sg1772
I46
sS'exp_key'
p1792
NsS'version'
p1793
I0
sS'result'
p1794
(dp1795
S'status'
p1796
S'ok'
p1797
sS'loss'
p1798
F0.0111
ssS'owner'
p1799
NsS'spec'
p1800
Nsa(dp1801
S'refresh_time'
p1802
g10
(S'\x07\xe3\n\x18\x12\x1b)\x06\x06\xf8'
p1803
tp1804
Rp1805
sS'book_time'
p1806
g10
(S'\x07\xe3\n\x18\x12\x11\x07\x05\xc4\x90'
p1807
tp1808
Rp1809
sS'misc'
p1810
(dp1811
S'tid'
p1812
I47
sS'idxs'
p1813
(dp1814
S'units1'
p1815
(lp1816
I47
asS'units2'
p1817
(lp1818
I47
asS'batch_size'
p1819
(lp1820
I47
assS'cmd'
p1821
(S'domain_attachment'
p1822
S'FMinIter_Domain'
p1823
tp1824
sS'vals'
p1825
(dp1826
g1815
(lp1827
F30.0
asg1817
(lp1828
F60.0
asg1819
(lp1829
I0
assS'workdir'
p1830
NssS'exp_key'
p1831
NsS'owner'
p1832
NsS'state'
p1833
I2
sS'version'
p1834
I0
sS'result'
p1835
(dp1836
S'status'
p1837
S'ok'
p1838
sS'loss'
p1839
F0.0095
ssg1812
I47
sS'spec'
p1840
Nsa(dp1841
S'refresh_time'
p1842
g10
(S'\x07\xe3\n\x18\x12&2\x04\xde\x18'
p1843
tp1844
Rp1845
sS'book_time'
p1846
g10
(S'\x07\xe3\n\x18\x12\x1b)\x065\xd8'
p1847
tp1848
Rp1849
sS'misc'
p1850
(dp1851
S'tid'
p1852
I48
sS'idxs'
p1853
(dp1854
S'units1'
p1855
(lp1856
I48
asS'units2'
p1857
(lp1858
I48
asS'batch_size'
p1859
(lp1860
I48
assS'cmd'
p1861
(S'domain_attachment'
p1862
S'FMinIter_Domain'
p1863
tp1864
sS'vals'
p1865
(dp1866
g1855
(lp1867
F20.0
asg1857
(lp1868
F60.0
asg1859
(lp1869
I0
assS'workdir'
p1870
NssS'state'
p1871
I2
sg1852
I48
sS'exp_key'
p1872
NsS'version'
p1873
I0
sS'result'
p1874
(dp1875
S'status'
p1876
S'ok'
p1877
sS'loss'
p1878
F0.0143
ssS'owner'
p1879
NsS'spec'
p1880
Nsa(dp1881
S'refresh_time'
p1882
g10
(S'\x07\xe3\n\x18\x122\x1f\n)\x90'
p1883
tp1884
Rp1885
sS'book_time'
p1886
g10
(S'\x07\xe3\n\x18\x12&2\x05\x18\xb0'
p1887
tp1888
Rp1889
sS'misc'
p1890
(dp1891
S'tid'
p1892
I49
sS'idxs'
p1893
(dp1894
S'units1'
p1895
(lp1896
I49
asS'units2'
p1897
(lp1898
I49
asS'batch_size'
p1899
(lp1900
I49
assS'cmd'
p1901
(S'domain_attachment'
p1902
S'FMinIter_Domain'
p1903
tp1904
sS'vals'
p1905
(dp1906
g1895
(lp1907
F90.0
asg1897
(lp1908
F20.0
asg1899
(lp1909
I0
assS'workdir'
p1910
NssS'exp_key'
p1911
NsS'owner'
p1912
NsS'state'
p1913
I2
sS'version'
p1914
I0
sS'result'
p1915
(dp1916
S'status'
p1917
S'ok'
p1918
sS'loss'
p1919
F0.0102
ssg1892
I49
sS'spec'
p1920
Nsa(dp1921
S'refresh_time'
p1922
g10
(S'\x07\xe3\n\x19\t\x06\x16\x01,\xc8'
p1923
tp1924
Rp1925
sS'book_time'
p1926
g10
(S'\x07\xe3\n\x19\x08\x10\t\x00qH'
p1927
tp1928
Rp1929
sS'misc'
p1930
(dp1931
S'tid'
p1932
I50
sS'idxs'
p1933
(dp1934
S'units1'
p1935
(lp1936
I50
asS'units2'
p1937
(lp1938
I50
asS'batch_size'
p1939
(lp1940
I50
assS'cmd'
p1941
(S'domain_attachment'
p1942
S'FMinIter_Domain'
p1943
tp1944
sS'vals'
p1945
(dp1946
g1935
(lp1947
F15.0
asg1937
(lp1948
F5.0
asg1939
(lp1949
I0
assS'workdir'
p1950
NssS'state'
p1951
I2
sg1932
I50
sS'exp_key'
p1952
NsS'version'
p1953
I0
sS'result'
p1954
(dp1955
S'status'
p1956
S'ok'
p1957
sS'loss'
p1958
F0.0171
ssS'owner'
p1959
NsS'spec'
p1960
NsasS'_exp_key'
p1961
NsS'attachments'
p1962
(dp1963
sS'_dynamic_trials'
p1964
(lp1965
g8
ag49
ag67
ag85
ag103
ag121
ag161
ag201
ag241
ag281
ag321
ag361
ag401
ag441
ag481
ag521
ag561
ag601
ag641
ag681
ag721
ag761
ag801
ag841
ag881
ag921
ag961
ag1001
ag1041
ag1081
ag1121
ag1161
ag1201
ag1241
ag1281
ag1321
ag1361
ag1401
ag1441
ag1481
ag1521
ag1561
ag1601
ag1641
ag1681
ag1721
ag1761
ag1801
ag1841
ag1881
ag1921
asS'_ids'
p1966
c__builtin__
set
p1967
((lp1968
I0
aI1
aI2
aI3
aI4
aI5
aI6
aI7
aI8
aI9
aI10
aI11
aI12
aI13
aI14
aI15
aI16
aI17
aI18
aI19
aI20
aI21
aI22
aI23
aI24
aI25
aI26
aI27
aI28
aI29
aI30
aI31
aI32
aI33
aI34
aI35
aI36
aI37
aI38
aI39
aI40
aI41
aI42
aI43
aI44
aI45
aI46
aI47
aI48
aI49
aI50
atp1969
Rp1970
sb.