ccopy_reg
_reconstructor
p0
(chyperopt.base
Trials
p1
c__builtin__
object
p2
Ntp3
Rp4
(dp5
S'_trials'
p6
(lp7
(dp8
S'refresh_time'
p9
cdatetime
datetime
p10
(S'\x07\xe3\n\t\x10!\x0e\x07jp'
p11
tp12
Rp13
sS'book_time'
p14
g10
(S'\x07\xe3\n\t\x10\x1c1\t^p'
p15
tp16
Rp17
sS'misc'
p18
(dp19
S'tid'
p20
I0
sS'idxs'
p21
(dp22
S'units1'
p23
(lp24
I0
asS'batch_size'
p25
(lp26
I0
assS'cmd'
p27
(S'domain_attachment'
p28
S'FMinIter_Domain'
p29
tp30
sS'vals'
p31
(dp32
g23
(lp33
F420.0
asg25
(lp34
I0
assS'workdir'
p35
NssS'exp_key'
p36
NsS'owner'
p37
NsS'state'
p38
I2
sS'version'
p39
I0
sS'result'
p40
(dp41
S'status'
p42
S'ok'
p43
sS'loss'
p44
F0.0091
ssg20
I0
sS'spec'
p45
Nsa(dp46
g9
g10
(S"\x07\xe3\n\t\x10#'\x0e\x96`"
p47
tp48
Rp49
sg14
g10
(S'\x07\xe3\n\t\x10!\x0e\x07nX'
p50
tp51
Rp52
sg18
(dp53
g20
I1
sg21
(dp54
g23
(lp55
I1
asg25
(lp56
I1
assg27
(g28
g29
tp57
sg31
(dp58
g23
(lp59
F70.0
asg25
(lp60
I0
assg35
Nssg36
Nsg37
Nsg38
I2
sg39
I0
sg40
(dp61
g42
g43
sg44
F0.0182
ssg20
I1
sg45
Nsa(dp62
g9
g10
(S"\x07\xe3\n\t\x10'\x04\x07S\x00"
p63
tp64
Rp65
sg14
g10
(S"\x07\xe3\n\t\x10#'\x0e\x96`"
p66
tp67
Rp68
sg18
(dp69
g20
I2
sg21
(dp70
g23
(lp71
I2
asg25
(lp72
I2
assg27
(g28
g29
tp73
sg31
(dp74
g23
(lp75
F200.0
asg25
(lp76
I0
assg35
Nssg36
Nsg37
Nsg38
I2
sg39
I0
sg40
(dp77
g42
g43
sg44
F0.0103
ssg20
I2
sg45
Nsa(dp78
g9
g10
(S'\x07\xe3\n\t\x10+\x18\x05\t\x10'
p79
tp80
Rp81
sg14
g10
(S"\x07\xe3\n\t\x10'\x04\x07S\x00"
p82
tp83
Rp84
sg18
(dp85
g20
I3
sg21
(dp86
g23
(lp87
I3
asg25
(lp88
I3
assg27
(g28
g29
tp89
sg31
(dp90
g23
(lp91
F370.0
asg25
(lp92
I0
assg35
Nssg36
Nsg37
Nsg38
I2
sg39
I0
sg40
(dp93
g42
g43
sg44
F0.0091
ssg20
I3
sg45
Nsa(dp94
g9
g10
(S'\x07\xe3\n\t\x100\x06\x08\x02\xc8'
p95
tp96
Rp97
sg14
g10
(S'\x07\xe3\n\t\x10+\x18\x05\x0c\xf8'
p98
tp99
Rp100
sg18
(dp101
g20
I4
sg21
(dp102
g23
(lp103
I4
asg25
(lp104
I4
assg27
(g28
g29
tp105
sg31
(dp106
g23
(lp107
F580.0
asg25
(lp108
I0
assg35
Nssg36
Nsg37
Nsg38
I2
sg39
I0
sg40
(dp109
g42
g43
sg44
F0.0089
ssg20
I4
sg45
Nsa(dp110
S'refresh_time'
p111
g10
(S'\x07\xe3\n\t\x1041\x03\x95\xf8'
p112
tp113
Rp114
sS'book_time'
p115
g10
(S'\x07\xe3\n\t\x100\x06\x08\x16P'
p116
tp117
Rp118
sS'misc'
p119
(dp120
S'tid'
p121
I5
sS'idxs'
p122
(dp123
S'units1'
p124
(lp125
I5
asS'batch_size'
p126
(lp127
I5
assS'cmd'
p128
(S'domain_attachment'
p129
S'FMinIter_Domain'
p130
tp131
sS'vals'
p132
(dp133
g124
(lp134
F770.0
asg126
(lp135
I0
assS'workdir'
p136
NssS'state'
p137
I2
sg121
I5
sS'exp_key'
p138
NsS'version'
p139
I0
sS'result'
p140
(dp141
S'status'
p142
S'ok'
p143
sS'loss'
p144
F0.0087
ssS'owner'
p145
NsS'spec'
p146
Nsa(dp147
S'refresh_time'
p148
g10
(S'\x07\xe3\n\t\x108!\x00\xda\xc0'
p149
tp150
Rp151
sS'book_time'
p152
g10
(S'\x07\xe3\n\t\x1041\x03\xa5\x98'
p153
tp154
Rp155
sS'misc'
p156
(dp157
S'tid'
p158
I6
sS'idxs'
p159
(dp160
S'units1'
p161
(lp162
I6
asS'batch_size'
p163
(lp164
I6
assS'cmd'
p165
(S'domain_attachment'
p166
S'FMinIter_Domain'
p167
tp168
sS'vals'
p169
(dp170
g161
(lp171
F320.0
asg163
(lp172
I0
assS'workdir'
p173
NssS'exp_key'
p174
NsS'owner'
p175
NsS'state'
p176
I2
sS'version'
p177
I0
sS'result'
p178
(dp179
S'status'
p180
S'ok'
p181
sS'loss'
p182
F0.0092
ssg158
I6
sS'spec'
p183
Nsa(dp184
S'refresh_time'
p185
g10
(S'\x07\xe3\n\t\x11\x01/\no\xe0'
p186
tp187
Rp188
sS'book_time'
p189
g10
(S'\x07\xe3\n\t\x108!\x00\xeeH'
p190
tp191
Rp192
sS'misc'
p193
(dp194
S'tid'
p195
I7
sS'idxs'
p196
(dp197
S'units1'
p198
(lp199
I7
asS'batch_size'
p200
(lp201
I7
assS'cmd'
p202
(S'domain_attachment'
p203
S'FMinIter_Domain'
p204
tp205
sS'vals'
p206
(dp207
g198
(lp208
F620.0
asg200
(lp209
I0
assS'workdir'
p210
NssS'state'
p211
I2
sg195
I7
sS'exp_key'
p212
NsS'version'
p213
I0
sS'result'
p214
(dp215
S'status'
p216
S'ok'
p217
sS'loss'
p218
F0.0088
ssS'owner'
p219
NsS'spec'
p220
Nsa(dp221
S'refresh_time'
p222
g10
(S'\x07\xe3\n\t\x11\x03\x1d\r} '
p223
tp224
Rp225
sS'book_time'
p226
g10
(S'\x07\xe3\n\t\x11\x01/\n\x83h'
p227
tp228
Rp229
sS'misc'
p230
(dp231
S'tid'
p232
I8
sS'idxs'
p233
(dp234
S'units1'
p235
(lp236
I8
asS'batch_size'
p237
(lp238
I8
assS'cmd'
p239
(S'domain_attachment'
p240
S'FMinIter_Domain'
p241
tp242
sS'vals'
p243
(dp244
g235
(lp245
F40.0
asg237
(lp246
I0
assS'workdir'
p247
NssS'exp_key'
p248
NsS'owner'
p249
NsS'state'
p250
I2
sS'version'
p251
I0
sS'result'
p252
(dp253
S'status'
p254
S'ok'
p255
sS'loss'
p256
F0.029
ssg232
I8
sS'spec'
p257
Nsa(dp258
S'refresh_time'
p259
g10
(S'\x07\xe3\n\t\x11\x1a\x11\r} '
p260
tp261
Rp262
sS'book_time'
p263
g10
(S'\x07\xe3\n\t\x11\x16\x1a\x0b\xf2\x98'
p264
tp265
Rp266
sS'misc'
p267
(dp268
S'tid'
p269
I9
sS'idxs'
p270
(dp271
S'units1'
p272
(lp273
I9
asS'batch_size'
p274
(lp275
I9
assS'cmd'
p276
(S'domain_attachment'
p277
S'FMinIter_Domain'
p278
tp279
sS'vals'
p280
(dp281
g272
(lp282
F300.0
asg274
(lp283
I0
assS'workdir'
p284
NssS'state'
p285
I2
sg269
I9
sS'exp_key'
p286
NsS'version'
p287
I0
sS'result'
p288
(dp289
S'status'
p290
S'ok'
p291
sS'loss'
p292
F0.0094
ssS'owner'
p293
NsS'spec'
p294
Nsa(dp295
S'refresh_time'
p296
g10
(S'\x07\xe3\n\t\x12\x07*\x0b\xbf\xd0'
p297
tp298
Rp299
sS'book_time'
p300
g10
(S'\x07\xe3\n\t\x12\x01\x18\x08"\x08'
p301
tp302
Rp303
sS'misc'
p304
(dp305
S'tid'
p306
I10
sS'idxs'
p307
(dp308
S'units1'
p309
(lp310
I10
asS'batch_size'
p311
(lp312
I10
assS'cmd'
p313
(S'domain_attachment'
p314
S'FMinIter_Domain'
p315
tp316
sS'vals'
p317
(dp318
g309
(lp319
F710.0
asg311
(lp320
I0
assS'workdir'
p321
NssS'exp_key'
p322
NsS'owner'
p323
NsS'state'
p324
I2
sS'version'
p325
I0
sS'result'
p326
(dp327
S'status'
p328
S'ok'
p329
sS'loss'
p330
F0.0088
ssg306
I10
sS'spec'
p331
Nsa(dp332
S'refresh_time'
p333
g10
(S'\x07\xe3\n\t\x12\x0b(\x00\xfa\x00'
p334
tp335
Rp336
sS'book_time'
p337
g10
(S'\x07\xe3\n\t\x12\x07*\x0b\xdb('
p338
tp339
Rp340
sS'misc'
p341
(dp342
S'tid'
p343
I11
sS'idxs'
p344
(dp345
S'units1'
p346
(lp347
I11
asS'batch_size'
p348
(lp349
I11
assS'cmd'
p350
(S'domain_attachment'
p351
S'FMinIter_Domain'
p352
tp353
sS'vals'
p354
(dp355
g346
(lp356
F380.0
asg348
(lp357
I0
assS'workdir'
p358
NssS'state'
p359
I2
sg343
I11
sS'exp_key'
p360
NsS'version'
p361
I0
sS'result'
p362
(dp363
S'status'
p364
S'ok'
p365
sS'loss'
p366
F0.0092
ssS'owner'
p367
NsS'spec'
p368
Nsa(dp369
S'refresh_time'
p370
g10
(S'\x07\xe3\n\t\x12\x10\x11\rY\xf8'
p371
tp372
Rp373
sS'book_time'
p374
g10
(S'\x07\xe3\n\t\x12\x0b(\x01\x1d('
p375
tp376
Rp377
sS'misc'
p378
(dp379
S'tid'
p380
I12
sS'idxs'
p381
(dp382
S'units1'
p383
(lp384
I12
asS'batch_size'
p385
(lp386
I12
assS'cmd'
p387
(S'domain_attachment'
p388
S'FMinIter_Domain'
p389
tp390
sS'vals'
p391
(dp392
g383
(lp393
F690.0
asg385
(lp394
I0
assS'workdir'
p395
NssS'exp_key'
p396
NsS'owner'
p397
NsS'state'
p398
I2
sS'version'
p399
I0
sS'result'
p400
(dp401
S'status'
p402
S'ok'
p403
sS'loss'
p404
F0.0087
ssg380
I12
sS'spec'
p405
Nsa(dp406
S'refresh_time'
p407
g10
(S'\x07\xe3\n\t\x12\x14(\x0e8\xa0'
p408
tp409
Rp410
sS'book_time'
p411
g10
(S'\x07\xe3\n\t\x12\x10\x11\ruP'
p412
tp413
Rp414
sS'misc'
p415
(dp416
S'tid'
p417
I13
sS'idxs'
p418
(dp419
S'units1'
p420
(lp421
I13
asS'batch_size'
p422
(lp423
I13
assS'cmd'
p424
(S'domain_attachment'
p425
S'FMinIter_Domain'
p426
tp427
sS'vals'
p428
(dp429
g420
(lp430
F590.0
asg422
(lp431
I0
assS'workdir'
p432
NssS'state'
p433
I2
sg417
I13
sS'exp_key'
p434
NsS'version'
p435
I0
sS'result'
p436
(dp437
S'status'
p438
S'ok'
p439
sS'loss'
p440
F0.0088
ssS'owner'
p441
NsS'spec'
p442
Nsa(dp443
S'refresh_time'
p444
g10
(S'\x07\xe3\n\t\x12\x17:\t\xd3\xa0'
p445
tp446
Rp447
sS'book_time'
p448
g10
(S'\x07\xe3\n\t\x12\x14(\x0eP\x10'
p449
tp450
Rp451
sS'misc'
p452
(dp453
S'tid'
p454
I14
sS'idxs'
p455
(dp456
S'units1'
p457
(lp458
I14
asS'batch_size'
p459
(lp460
I14
assS'cmd'
p461
(S'domain_attachment'
p462
S'FMinIter_Domain'
p463
tp464
sS'vals'
p465
(dp466
g457
(lp467
F210.0
asg459
(lp468
I0
assS'workdir'
p469
NssS'exp_key'
p470
NsS'owner'
p471
NsS'state'
p472
I2
sS'version'
p473
I0
sS'result'
p474
(dp475
S'status'
p476
S'ok'
p477
sS'loss'
p478
F0.0101
ssg454
I14
sS'spec'
p479
Nsa(dp480
S'refresh_time'
p481
g10
(S'\x07\xe3\n\t\x12\x1a"\n\x96\xf0'
p482
tp483
Rp484
sS'book_time'
p485
g10
(S'\x07\xe3\n\t\x12\x17:\t\xf2\xe0'
p486
tp487
Rp488
sS'misc'
p489
(dp490
S'tid'
p491
I15
sS'idxs'
p492
(dp493
S'units1'
p494
(lp495
I15
asS'batch_size'
p496
(lp497
I15
assS'cmd'
p498
(S'domain_attachment'
p499
S'FMinIter_Domain'
p500
tp501
sS'vals'
p502
(dp503
g494
(lp504
F100.0
asg496
(lp505
I0
assS'workdir'
p506
NssS'state'
p507
I2
sg491
I15
sS'exp_key'
p508
NsS'version'
p509
I0
sS'result'
p510
(dp511
S'status'
p512
S'ok'
p513
sS'loss'
p514
F0.0142
ssS'owner'
p515
NsS'spec'
p516
Nsa(dp517
S'refresh_time'
p518
g10
(S'\x07\xe3\n\t\x12\x1f\x14\x03\xa9\x80'
p519
tp520
Rp521
sS'book_time'
p522
g10
(S'\x07\xe3\n\t\x12\x1a"\n\xbe\x00'
p523
tp524
Rp525
sS'misc'
p526
(dp527
S'tid'
p528
I16
sS'idxs'
p529
(dp530
S'units1'
p531
(lp532
I16
asS'batch_size'
p533
(lp534
I16
assS'cmd'
p535
(S'domain_attachment'
p536
S'FMinIter_Domain'
p537
tp538
sS'vals'
p539
(dp540
g531
(lp541
F760.0
asg533
(lp542
I0
assS'workdir'
p543
NssS'exp_key'
p544
NsS'owner'
p545
NsS'state'
p546
I2
sS'version'
p547
I0
sS'result'
p548
(dp549
S'status'
p550
S'ok'
p551
sS'loss'
p552
F0.0087
ssg528
I16
sS'spec'
p553
Nsa(dp554
S'refresh_time'
p555
g10
(S'\x07\xe3\n\t\x12#,\x07\xb4\xa8'
p556
tp557
Rp558
sS'book_time'
p559
g10
(S'\x07\xe3\n\t\x12\x1f\x14\x03\xd0\x90'
p560
tp561
Rp562
sS'misc'
p563
(dp564
S'tid'
p565
I17
sS'idxs'
p566
(dp567
S'units1'
p568
(lp569
I17
asS'batch_size'
p570
(lp571
I17
assS'cmd'
p572
(S'domain_attachment'
p573
S'FMinIter_Domain'
p574
tp575
sS'vals'
p576
(dp577
g568
(lp578
F550.0
asg570
(lp579
I0
assS'workdir'
p580
NssS'state'
p581
I2
sg565
I17
sS'exp_key'
p582
NsS'version'
p583
I0
sS'result'
p584
(dp585
S'status'
p586
S'ok'
p587
sS'loss'
p588
F0.0088
ssS'owner'
p589
NsS'spec'
p590
Nsa(dp591
S'refresh_time'
p592
g10
(S'\x07\xe3\n\t\x12(\x06\nh\x10'
p593
tp594
Rp595
sS'book_time'
p596
g10
(S'\x07\xe3\n\t\x12#,\x07\xd3\xe8'
p597
tp598
Rp599
sS'misc'
p600
(dp601
S'tid'
p602
I18
sS'idxs'
p603
(dp604
S'units1'
p605
(lp606
I18
asS'batch_size'
p607
(lp608
I18
assS'cmd'
p609
(S'domain_attachment'
p610
S'FMinIter_Domain'
p611
tp612
sS'vals'
p613
(dp614
g605
(lp615
F600.0
asg607
(lp616
I0
assS'workdir'
p617
NssS'exp_key'
p618
NsS'owner'
p619
NsS'state'
p620
I2
sS'version'
p621
I0
sS'result'
p622
(dp623
S'status'
p624
S'ok'
p625
sS'loss'
p626
F0.0087
ssg602
I18
sS'spec'
p627
Nsa(dp628
S'refresh_time'
p629
g10
(S'\x07\xe3\n\t\x12,.\x06A\x90'
p630
tp631
Rp632
sS'book_time'
p633
g10
(S'\x07\xe3\n\t\x12(\x06\n\x9a\xd8'
p634
tp635
Rp636
sS'misc'
p637
(dp638
S'tid'
p639
I19
sS'idxs'
p640
(dp641
S'units1'
p642
(lp643
I19
asS'batch_size'
p644
(lp645
I19
assS'cmd'
p646
(S'domain_attachment'
p647
S'FMinIter_Domain'
p648
tp649
sS'vals'
p650
(dp651
g642
(lp652
F700.0
asg644
(lp653
I0
assS'workdir'
p654
NssS'state'
p655
I2
sg639
I19
sS'exp_key'
p656
NsS'version'
p657
I0
sS'result'
p658
(dp659
S'status'
p660
S'ok'
p661
sS'loss'
p662
F0.0087
ssS'owner'
p663
NsS'spec'
p664
Nsa(dp665
S'refresh_time'
p666
g10
(S'\x07\xe3\n\t\x121!\nH\xd0'
p667
tp668
Rp669
sS'book_time'
p670
g10
(S'\x07\xe3\n\t\x12,.\x06d\xb8'
p671
tp672
Rp673
sS'misc'
p674
(dp675
S'tid'
p676
I20
sS'idxs'
p677
(dp678
S'units1'
p679
(lp680
I20
asS'batch_size'
p681
(lp682
I20
assS'cmd'
p683
(S'domain_attachment'
p684
S'FMinIter_Domain'
p685
tp686
sS'vals'
p687
(dp688
g679
(lp689
F750.0
asg681
(lp690
I0
assS'workdir'
p691
NssS'exp_key'
p692
NsS'owner'
p693
NsS'state'
p694
I2
sS'version'
p695
I0
sS'result'
p696
(dp697
S'status'
p698
S'ok'
p699
sS'loss'
p700
F0.0088
ssg676
I20
sS'spec'
p701
Nsa(dp702
S'refresh_time'
p703
g10
(S'\x07\xe3\n\t\x126\x0b\x05\x9d\x80'
p704
tp705
Rp706
sS'book_time'
p707
g10
(S'\x07\xe3\n\t\x121!\no\xe0'
p708
tp709
Rp710
sS'misc'
p711
(dp712
S'tid'
p713
I21
sS'idxs'
p714
(dp715
S'units1'
p716
(lp717
I21
asS'batch_size'
p718
(lp719
I21
assS'cmd'
p720
(S'domain_attachment'
p721
S'FMinIter_Domain'
p722
tp723
sS'vals'
p724
(dp725
g716
(lp726
F680.0
asg718
(lp727
I0
assS'workdir'
p728
NssS'state'
p729
I2
sg713
I21
sS'exp_key'
p730
NsS'version'
p731
I0
sS'result'
p732
(dp733
S'status'
p734
S'ok'
p735
sS'loss'
p736
F0.0087
ssS'owner'
p737
NsS'spec'
p738
Nsa(dp739
S'refresh_time'
p740
g10
(S'\x07\xe3\n\t\x12:2\x00\xc3P'
p741
tp742
Rp743
sS'book_time'
p744
g10
(S'\x07\xe3\n\t\x126\x0b\x05\xc4\x90'
p745
tp746
Rp747
sS'misc'
p748
(dp749
S'tid'
p750
I22
sS'idxs'
p751
(dp752
S'units1'
p753
(lp754
I22
asS'batch_size'
p755
(lp756
I22
assS'cmd'
p757
(S'domain_attachment'
p758
S'FMinIter_Domain'
p759
tp760
sS'vals'
p761
(dp762
g753
(lp763
F670.0
asg755
(lp764
I0
assS'workdir'
p765
NssS'exp_key'
p766
NsS'owner'
p767
NsS'state'
p768
I2
sS'version'
p769
I0
sS'result'
p770
(dp771
S'status'
p772
S'ok'
p773
sS'loss'
p774
F0.0087
ssg750
I22
sS'spec'
p775
Nsa(dp776
S'refresh_time'
p777
g10
(S'\x07\xe3\n\t\x13\x017\x0e\x15x'
p778
tp779
Rp780
sS'book_time'
p781
g10
(S'\x07\xe3\n\t\x12:2\x00\xe6x'
p782
tp783
Rp784
sS'misc'
p785
(dp786
S'tid'
p787
I23
sS'idxs'
p788
(dp789
S'units1'
p790
(lp791
I23
asS'batch_size'
p792
(lp793
I23
assS'cmd'
p794
(S'domain_attachment'
p795
S'FMinIter_Domain'
p796
tp797
sS'vals'
p798
(dp799
g790
(lp800
F170.0
asg792
(lp801
I0
assS'workdir'
p802
NssS'state'
p803
I2
sg787
I23
sS'exp_key'
p804
NsS'version'
p805
I0
sS'result'
p806
(dp807
S'status'
p808
S'ok'
p809
sS'loss'
p810
F0.0109
ssS'owner'
p811
NsS'spec'
p812
Nsa(dp813
S'refresh_time'
p814
g10
(S'\x07\xe3\n\t\x13\x05\n\x01\xf7\xe8'
p815
tp816
Rp817
sS'book_time'
p818
g10
(S'\x07\xe3\n\t\x13\x017\x0e8\xa0'
p819
tp820
Rp821
sS'misc'
p822
(dp823
S'tid'
p824
I24
sS'idxs'
p825
(dp826
S'units1'
p827
(lp828
I24
asS'batch_size'
p829
(lp830
I24
assS'cmd'
p831
(S'domain_attachment'
p832
S'FMinIter_Domain'
p833
tp834
sS'vals'
p835
(dp836
g827
(lp837
F270.0
asg829
(lp838
I0
assS'workdir'
p839
NssS'exp_key'
p840
NsS'owner'
p841
NsS'state'
p842
I2
sS'version'
p843
I0
sS'result'
p844
(dp845
S'status'
p846
S'ok'
p847
sS'loss'
p848
F0.0095
ssg824
I24
sS'spec'
p849
Nsa(dp850
S'refresh_time'
p851
g10
(S'\x07\xe3\n\t\x13\t)\t\xac\x90'
p852
tp853
Rp854
sS'book_time'
p855
g10
(S'\x07\xe3\n\t\x13\x05\n\x02\x1b\x10'
p856
tp857
Rp858
sS'misc'
p859
(dp860
S'tid'
p861
I25
sS'idxs'
p862
(dp863
S'units1'
p864
(lp865
I25
asS'batch_size'
p866
(lp867
I25
assS'cmd'
p868
(S'domain_attachment'
p869
S'FMinIter_Domain'
p870
tp871
sS'vals'
p872
(dp873
g864
(lp874
F530.0
asg866
(lp875
I0
assS'workdir'
p876
NssS'state'
p877
I2
sg861
I25
sS'exp_key'
p878
NsS'version'
p879
I0
sS'result'
p880
(dp881
S'status'
p882
S'ok'
p883
sS'loss'
p884
F0.0089
ssS'owner'
p885
NsS'spec'
p886
Nsa(dp887
S'refresh_time'
p888
g10
(S'\x07\xe3\n\t\x13\r\x18\x08\xdd\x88'
p889
tp890
Rp891
sS'book_time'
p892
g10
(S'\x07\xe3\n\t\x13\t)\t\xd7\x88'
p893
tp894
Rp895
sS'misc'
p896
(dp897
S'tid'
p898
I26
sS'idxs'
p899
(dp900
S'units1'
p901
(lp902
I26
asS'batch_size'
p903
(lp904
I26
assS'cmd'
p905
(S'domain_attachment'
p906
S'FMinIter_Domain'
p907
tp908
sS'vals'
p909
(dp910
g901
(lp911
F220.0
asg903
(lp912
I0
assS'workdir'
p913
NssS'exp_key'
p914
NsS'owner'
p915
NsS'state'
p916
I2
sS'version'
p917
I0
sS'result'
p918
(dp919
S'status'
p920
S'ok'
p921
sS'loss'
p922
F0.01
ssg898
I26
sS'spec'
p923
Nsa(dp924
S'refresh_time'
p925
g10
(S'\x07\xe3\n\t\x13\x10"\x01\x82\xb8'
p926
tp927
Rp928
sS'book_time'
p929
g10
(S'\x07\xe3\n\t\x13\r\x18\t\x0ch'
p930
tp931
Rp932
sS'misc'
p933
(dp934
S'tid'
p935
I27
sS'idxs'
p936
(dp937
S'units1'
p938
(lp939
I27
asS'batch_size'
p940
(lp941
I27
assS'cmd'
p942
(S'domain_attachment'
p943
S'FMinIter_Domain'
p944
tp945
sS'vals'
p946
(dp947
g938
(lp948
F140.0
asg940
(lp949
I0
assS'workdir'
p950
NssS'state'
p951
I2
sg935
I27
sS'exp_key'
p952
NsS'version'
p953
I0
sS'result'
p954
(dp955
S'status'
p956
S'ok'
p957
sS'loss'
p958
F0.0119
ssS'owner'
p959
NsS'spec'
p960
Nsa(dp961
S'refresh_time'
p962
g10
(S'\x07\xe3\n\t\x13\x16%\x0b\x1f\xa8'
p963
tp964
Rp965
sS'book_time'
p966
g10
(S'\x07\xe3\n\t\x13\x10"\x01\xad\xb0'
p967
tp968
Rp969
sS'misc'
p970
(dp971
S'tid'
p972
I28
sS'idxs'
p973
(dp974
S'units1'
p975
(lp976
I28
asS'batch_size'
p977
(lp978
I28
assS'cmd'
p979
(S'domain_attachment'
p980
S'FMinIter_Domain'
p981
tp982
sS'vals'
p983
(dp984
g975
(lp985
F640.0
asg977
(lp986
I0
assS'workdir'
p987
NssS'exp_key'
p988
NsS'owner'
p989
NsS'state'
p990
I2
sS'version'
p991
I0
sS'result'
p992
(dp993
S'status'
p994
S'ok'
p995
sS'loss'
p996
F0.0088
ssg972
I28
sS'spec'
p997
Nsa(dp998
S'refresh_time'
p999
g10
(S'\x07\xe3\n\t\x13\x1b$\x08E0'
p1000
tp1001
Rp1002
sS'book_time'
p1003
g10
(S'\x07\xe3\n\t\x13\x16%\x0bJ\xa0'
p1004
tp1005
Rp1006
sS'misc'
p1007
(dp1008
S'tid'
p1009
I29
sS'idxs'
p1010
(dp1011
S'units1'
p1012
(lp1013
I29
asS'batch_size'
p1014
(lp1015
I29
assS'cmd'
p1016
(S'domain_attachment'
p1017
S'FMinIter_Domain'
p1018
tp1019
sS'vals'
p1020
(dp1021
g1012
(lp1022
F450.0
asg1014
(lp1023
I0
assS'workdir'
p1024
NssS'state'
p1025
I2
sg1009
I29
sS'exp_key'
p1026
NsS'version'
p1027
I0
sS'result'
p1028
(dp1029
S'status'
p1030
S'ok'
p1031
sS'loss'
p1032
F0.009
ssS'owner'
p1033
NsS'spec'
p1034
Nsa(dp1035
S'refresh_time'
p1036
g10
(S'\x07\xe3\n\t\x13!\x1f\x00e\x90'
p1037
tp1038
Rp1039
sS'book_time'
p1040
g10
(S'\x07\xe3\n\t\x13\x1b$\x08p('
p1041
tp1042
Rp1043
sS'misc'
p1044
(dp1045
S'tid'
p1046
I30
sS'idxs'
p1047
(dp1048
S'units1'
p1049
(lp1050
I30
asS'batch_size'
p1051
(lp1052
I30
assS'cmd'
p1053
(S'domain_attachment'
p1054
S'FMinIter_Domain'
p1055
tp1056
sS'vals'
p1057
(dp1058
g1049
(lp1059
F610.0
asg1051
(lp1060
I0
assS'workdir'
p1061
NssS'exp_key'
p1062
NsS'owner'
p1063
NsS'state'
p1064
I2
sS'version'
p1065
I0
sS'result'
p1066
(dp1067
S'status'
p1068
S'ok'
p1069
sS'loss'
p1070
F0.0088
ssg1046
I30
sS'spec'
p1071
Nsa(dp1072
S'refresh_time'
p1073
g10
(S'\x07\xe3\n\t\x13%\x0f\x02q\x00'
p1074
tp1075
Rp1076
sS'book_time'
p1077
g10
(S'\x07\xe3\n\t\x13!\x1f\x00\x94p'
p1078
tp1079
Rp1080
sS'misc'
p1081
(dp1082
S'tid'
p1083
I31
sS'idxs'
p1084
(dp1085
S'units1'
p1086
(lp1087
I31
asS'batch_size'
p1088
(lp1089
I31
assS'cmd'
p1090
(S'domain_attachment'
p1091
S'FMinIter_Domain'
p1092
tp1093
sS'vals'
p1094
(dp1095
g1086
(lp1096
F250.0
asg1088
(lp1097
I0
assS'workdir'
p1098
NssS'state'
p1099
I2
sg1083
I31
sS'exp_key'
p1100
NsS'version'
p1101
I0
sS'result'
p1102
(dp1103
S'status'
p1104
S'ok'
p1105
sS'loss'
p1106
F0.0097
ssS'owner'
p1107
NsS'spec'
p1108
Nsa(dp1109
S'refresh_time'
p1110
g10
(S'\x07\xe3\n\t\x13+\x14\x010\xb0'
p1111
tp1112
Rp1113
sS'book_time'
p1114
g10
(S'\x07\xe3\n\t\x13%\x0f\x02\x9b\xf8'
p1115
tp1116
Rp1117
sS'misc'
p1118
(dp1119
S'tid'
p1120
I32
sS'idxs'
p1121
(dp1122
S'units1'
p1123
(lp1124
I32
asS'batch_size'
p1125
(lp1126
I32
assS'cmd'
p1127
(S'domain_attachment'
p1128
S'FMinIter_Domain'
p1129
tp1130
sS'vals'
p1131
(dp1132
g1123
(lp1133
F630.0
asg1125
(lp1134
I0
assS'workdir'
p1135
NssS'exp_key'
p1136
NsS'owner'
p1137
NsS'state'
p1138
I2
sS'version'
p1139
I0
sS'result'
p1140
(dp1141
S'status'
p1142
S'ok'
p1143
sS'loss'
p1144
F0.0088
ssg1120
I32
sS'spec'
p1145
Nsa(dp1146
S'refresh_time'
p1147
g10
(S'\x07\xe3\n\t\x132\n\x08X\xb8'
p1148
tp1149
Rp1150
sS'book_time'
p1151
g10
(S'\x07\xe3\n\t\x13+\x14\x01_\x90'
p1152
tp1153
Rp1154
sS'misc'
p1155
(dp1156
S'tid'
p1157
I33
sS'idxs'
p1158
(dp1159
S'units1'
p1160
(lp1161
I33
asS'batch_size'
p1162
(lp1163
I33
assS'cmd'
p1164
(S'domain_attachment'
p1165
S'FMinIter_Domain'
p1166
tp1167
sS'vals'
p1168
(dp1169
g1160
(lp1170
F780.0
asg1162
(lp1171
I0
assS'workdir'
p1172
NssS'state'
p1173
I2
sg1157
I33
sS'exp_key'
p1174
NsS'version'
p1175
I0
sS'result'
p1176
(dp1177
S'status'
p1178
S'ok'
p1179
sS'loss'
p1180
F0.0087
ssS'owner'
p1181
NsS'spec'
p1182
Nsa(dp1183
S'refresh_time'
p1184
g10
(S'\x07\xe3\n\t\x135;\x02\x80\xa0'
p1185
tp1186
Rp1187
sS'book_time'
p1188
g10
(S'\x07\xe3\n\t\x132\n\x08\x8b\x80'
p1189
tp1190
Rp1191
sS'misc'
p1192
(dp1193
S'tid'
p1194
I34
sS'idxs'
p1195
(dp1196
S'units1'
p1197
(lp1198
I34
asS'batch_size'
p1199
(lp1200
I34
assS'cmd'
p1201
(S'domain_attachment'
p1202
S'FMinIter_Domain'
p1203
tp1204
sS'vals'
p1205
(dp1206
g1197
(lp1207
F240.0
asg1199
(lp1208
I0
assS'workdir'
p1209
NssS'exp_key'
p1210
NsS'owner'
p1211
NsS'state'
p1212
I2
sS'version'
p1213
I0
sS'result'
p1214
(dp1215
S'status'
p1216
S'ok'
p1217
sS'loss'
p1218
F0.0097
ssg1194
I34
sS'spec'
p1219
Nsa(dp1220
S'refresh_time'
p1221
g10
(S'\x07\xe3\n\t\x138\x0c\x0c\xd1@'
p1222
tp1223
Rp1224
sS'book_time'
p1225
g10
(S'\x07\xe3\n\t\x135;\x02\xb7P'
p1226
tp1227
Rp1228
sS'misc'
p1229
(dp1230
S'tid'
p1231
I35
sS'idxs'
p1232
(dp1233
S'units1'
p1234
(lp1235
I35
asS'batch_size'
p1236
(lp1237
I35
assS'cmd'
p1238
(S'domain_attachment'
p1239
S'FMinIter_Domain'
p1240
tp1241
sS'vals'
p1242
(dp1243
g1234
(lp1244
F50.0
asg1236
(lp1245
I0
assS'workdir'
p1246
NssS'state'
p1247
I2
sg1231
I35
sS'exp_key'
p1248
NsS'version'
p1249
I0
sS'result'
p1250
(dp1251
S'status'
p1252
S'ok'
p1253
sS'loss'
p1254
F0.024
ssS'owner'
p1255
NsS'spec'
p1256
Nsa(dp1257
S'refresh_time'
p1258
g10
(S'\x07\xe3\n\t\x14\x01/\x02]x'
p1259
tp1260
Rp1261
sS'book_time'
p1262
g10
(S'\x07\xe3\n\t\x138\x0c\r\x04\x08'
p1263
tp1264
Rp1265
sS'misc'
p1266
(dp1267
S'tid'
p1268
I36
sS'idxs'
p1269
(dp1270
S'units1'
p1271
(lp1272
I36
asS'batch_size'
p1273
(lp1274
I36
assS'cmd'
p1275
(S'domain_attachment'
p1276
S'FMinIter_Domain'
p1277
tp1278
sS'vals'
p1279
(dp1280
g1271
(lp1281
F540.0
asg1273
(lp1282
I0
assS'workdir'
p1283
NssS'exp_key'
p1284
NsS'owner'
p1285
NsS'state'
p1286
I2
sS'version'
p1287
I0
sS'result'
p1288
(dp1289
S'status'
p1290
S'ok'
p1291
sS'loss'
p1292
F0.0088
ssg1268
I36
sS'spec'
p1293
Nsa(dp1294
S'refresh_time'
p1295
g10
(S'\x07\xe3\n\t\x14\x05\x1e\x07\xef@'
p1296
tp1297
Rp1298
sS'book_time'
p1299
g10
(S'\x07\xe3\n\t\x14\x01/\x02\x90@'
p1300
tp1301
Rp1302
sS'misc'
p1303
(dp1304
S'tid'
p1305
I37
sS'idxs'
p1306
(dp1307
S'units1'
p1308
(lp1309
I37
asS'batch_size'
p1310
(lp1311
I37
assS'cmd'
p1312
(S'domain_attachment'
p1313
S'FMinIter_Domain'
p1314
tp1315
sS'vals'
p1316
(dp1317
g1308
(lp1318
F260.0
asg1310
(lp1319
I0
assS'workdir'
p1320
NssS'state'
p1321
I2
sg1305
I37
sS'exp_key'
p1322
NsS'version'
p1323
I0
sS'result'
p1324
(dp1325
S'status'
p1326
S'ok'
p1327
sS'loss'
p1328
F0.0097
ssS'owner'
p1329
NsS'spec'
p1330
Nsa(dp1331
S'refresh_time'
p1332
g10
(S'\x07\xe3\n\t\x14\t\x16\x07\xebX'
p1333
tp1334
Rp1335
sS'book_time'
p1336
g10
(S'\x07\xe3\n\t\x14\x05\x1e\x08%\xf0'
p1337
tp1338
Rp1339
sS'misc'
p1340
(dp1341
S'tid'
p1342
I38
sS'idxs'
p1343
(dp1344
S'units1'
p1345
(lp1346
I38
asS'batch_size'
p1347
(lp1348
I38
assS'cmd'
p1349
(S'domain_attachment'
p1350
S'FMinIter_Domain'
p1351
tp1352
sS'vals'
p1353
(dp1354
g1345
(lp1355
F290.0
asg1347
(lp1356
I0
assS'workdir'
p1357
NssS'exp_key'
p1358
NsS'owner'
p1359
NsS'state'
p1360
I2
sS'version'
p1361
I0
sS'result'
p1362
(dp1363
S'status'
p1364
S'ok'
p1365
sS'loss'
p1366
F0.0095
ssg1342
I38
sS'spec'
p1367
Nsa(dp1368
S'refresh_time'
p1369
g10
(S'\x07\xe3\n\t\x14\r\x08\n\xa2\xa8'
p1370
tp1371
Rp1372
sS'book_time'
p1373
g10
(S'\x07\xe3\n\t\x14\t\x16\x08"\x08'
p1374
tp1375
Rp1376
sS'misc'
p1377
(dp1378
S'tid'
p1379
I39
sS'idxs'
p1380
(dp1381
S'units1'
p1382
(lp1383
I39
asS'batch_size'
p1384
(lp1385
I39
assS'cmd'
p1386
(S'domain_attachment'
p1387
S'FMinIter_Domain'
p1388
tp1389
sS'vals'
p1390
(dp1391
g1382
(lp1392
F280.0
asg1384
(lp1393
I0
assS'workdir'
p1394
NssS'state'
p1395
I2
sg1379
I39
sS'exp_key'
p1396
NsS'version'
p1397
I0
sS'result'
p1398
(dp1399
S'status'
p1400
S'ok'
p1401
sS'loss'
p1402
F0.0095
ssS'owner'
p1403
NsS'spec'
p1404
Nsa(dp1405
S'refresh_time'
p1406
g10
(S'\x07\xe3\n\t\x14\x10\x11\t\x9c\xf0'
p1407
tp1408
Rp1409
sS'book_time'
p1410
g10
(S'\x07\xe3\n\t\x14\r\x08\n\xd9X'
p1411
tp1412
Rp1413
sS'misc'
p1414
(dp1415
S'tid'
p1416
I40
sS'idxs'
p1417
(dp1418
S'units1'
p1419
(lp1420
I40
asS'batch_size'
p1421
(lp1422
I40
assS'cmd'
p1423
(S'domain_attachment'
p1424
S'FMinIter_Domain'
p1425
tp1426
sS'vals'
p1427
(dp1428
g1419
(lp1429
F150.0
asg1421
(lp1430
I0
assS'workdir'
p1431
NssS'exp_key'
p1432
NsS'owner'
p1433
NsS'state'
p1434
I2
sS'version'
p1435
I0
sS'result'
p1436
(dp1437
S'status'
p1438
S'ok'
p1439
sS'loss'
p1440
F0.0115
ssg1416
I40
sS'spec'
p1441
Nsa(dp1442
S'refresh_time'
p1443
g10
(S'\x07\xe3\n\t\x14\x16(\r\x94\x90'
p1444
tp1445
Rp1446
sS'book_time'
p1447
g10
(S'\x07\xe3\n\t\x14\x10\x11\t\xd3\xa0'
p1448
tp1449
Rp1450
sS'misc'
p1451
(dp1452
S'tid'
p1453
I41
sS'idxs'
p1454
(dp1455
S'units1'
p1456
(lp1457
I41
asS'batch_size'
p1458
(lp1459
I41
assS'cmd'
p1460
(S'domain_attachment'
p1461
S'FMinIter_Domain'
p1462
tp1463
sS'vals'
p1464
(dp1465
g1456
(lp1466
F740.0
asg1458
(lp1467
I0
assS'workdir'
p1468
NssS'state'
p1469
I2
sg1453
I41
sS'exp_key'
p1470
NsS'version'
p1471
I0
sS'result'
p1472
(dp1473
S'status'
p1474
S'ok'
p1475
sS'loss'
p1476
F0.0087
ssS'owner'
p1477
NsS'spec'
p1478
NsasS'_exp_key'
p1479
NsS'attachments'
p1480
(dp1481
sS'_dynamic_trials'
p1482
(lp1483
g8
ag46
ag62
ag78
ag94
ag110
ag147
ag184
ag221
ag258
ag295
ag332
ag369
ag406
ag443
ag480
ag517
ag554
ag591
ag628
ag665
ag702
ag739
ag776
ag813
ag850
ag887
ag924
ag961
ag998
ag1035
ag1072
ag1109
ag1146
ag1183
ag1220
ag1257
ag1294
ag1331
ag1368
ag1405
ag1442
asS'_ids'
p1484
c__builtin__
set
p1485
((lp1486
I0
aI1
aI2
aI3
aI4
aI5
aI6
aI7
aI8
aI9
aI10
aI11
aI12
aI13
aI14
aI15
aI16
aI17
aI18
aI19
aI20
aI21
aI22
aI23
aI24
aI25
aI26
aI27
aI28
aI29
aI30
aI31
aI32
aI33
aI34
aI35
aI36
aI37
aI38
aI39
aI40
aI41
atp1487
Rp1488
sb.